C000  4C F5 C5  JMP $C5F5 = A2                  A:00 X:00 Y:00 P:24 SP:00
C5F5  A2 00     LDX #$00                        A:00 X:00 Y:00 P:24 SP:00
C5F7  86 00     STX $00 = 00                    A:00 X:00 Y:00 P:26 SP:00
C5F9  86 10     STX $10 = 00                    A:00 X:00 Y:00 P:26 SP:00
C5FB  86 11     STX $11 = 00                    A:00 X:00 Y:00 P:26 SP:00
C5FD  20 2D C7  JSR $C72D = EA                  A:00 X:00 Y:00 P:26 SP:00
C72D  EA        NOP                             A:00 X:00 Y:00 P:26 SP:FE
C72E  38        SEC                             A:00 X:00 Y:00 P:26 SP:FE
C72F  B0 04     BCS $C735                       A:00 X:00 Y:00 P:27 SP:FE
C735  EA        NOP                             A:00 X:00 Y:00 P:27 SP:FE
C736  18        CEC                             A:00 X:00 Y:00 P:27 SP:FE
C737  B0 03     BCS $C73C                       A:00 X:00 Y:00 P:26 SP:FE
C739  4C 40 C7  JMP $C740 = EA                  A:00 X:00 Y:00 P:26 SP:FE
C740  EA        NOP                             A:00 X:00 Y:00 P:26 SP:FE
C741  38        SEC                             A:00 X:00 Y:00 P:26 SP:FE
C742  90 03     BCC $C747                       A:00 X:00 Y:00 P:27 SP:FE
C744  4C 4B C7  JMP $C74B = EA                  A:00 X:00 Y:00 P:27 SP:FE
C74B  EA        NOP                             A:00 X:00 Y:00 P:27 SP:FE
C74C  18        CEC                             A:00 X:00 Y:00 P:27 SP:FE
C74D  90 04     BCC $C753                       A:00 X:00 Y:00 P:26 SP:FE
C753  EA        NOP                             A:00 X:00 Y:00 P:26 SP:FE
C754  A9 00     LDA #$00                        A:00 X:00 Y:00 P:26 SP:FE
C756  F0 04     BEQ $C75C                       A:00 X:00 Y:00 P:26 SP:FE
C75C  EA        NOP                             A:00 X:00 Y:00 P:26 SP:FE
C75D  A9 40     LDA #$40                        A:00 X:00 Y:00 P:26 SP:FE
C75F  F0 03     BEQ $C764                       A:40 X:00 Y:00 P:24 SP:FE
C761  4C 68 C7  JMP $C768 = EA                  A:40 X:00 Y:00 P:24 SP:FE
C768  EA        NOP                             A:40 X:00 Y:00 P:24 SP:FE
C769  A9 40     LDA #$40                        A:40 X:00 Y:00 P:24 SP:FE
C76B  D0 04     BNE $C771                       A:40 X:00 Y:00 P:24 SP:FE
C771  EA        NOP                             A:40 X:00 Y:00 P:24 SP:FE
C772  A9 00     LDA #$00                        A:40 X:00 Y:00 P:24 SP:FE
C774  D0 03     BNE $C779                       A:00 X:00 Y:00 P:26 SP:FE
C776  4C 7D C7  JMP $C77D = EA                  A:00 X:00 Y:00 P:26 SP:FE
C77D  EA        NOP                             A:00 X:00 Y:00 P:26 SP:FE
C77E  A9 FF     LDA #$FF                        A:00 X:00 Y:00 P:26 SP:FE
C780  85 01     STA $01 = 00                    A:FF X:00 Y:00 P:A4 SP:FE
C782  24 01     BIT $01 = FF                    A:FF X:00 Y:00 P:A4 SP:FE
C784  70 04     BVS $C78A                       A:FF X:00 Y:00 P:E4 SP:FE
C78A  EA        NOP                             A:FF X:00 Y:00 P:E4 SP:FE
C78B  24 01     BIT $01 = FF                    A:FF X:00 Y:00 P:E4 SP:FE
C78D  50 03     BVC $C792                       A:FF X:00 Y:00 P:E4 SP:FE
C78F  4C 96 C7  JMP $C796 = EA                  A:FF X:00 Y:00 P:E4 SP:FE
C796  EA        NOP                             A:FF X:00 Y:00 P:E4 SP:FE
C797  A9 00     LDA #$00                        A:FF X:00 Y:00 P:E4 SP:FE
C799  85 01     STA $01 = FF                    A:00 X:00 Y:00 P:66 SP:FE
C79B  24 01     BIT $01 = 00                    A:00 X:00 Y:00 P:66 SP:FE
C79D  50 04     BVC $C7A3                       A:00 X:00 Y:00 P:26 SP:FE
C7A3  EA        NOP                             A:00 X:00 Y:00 P:26 SP:FE
C7A4  24 01     BIT $01 = 00                    A:00 X:00 Y:00 P:26 SP:FE
C7A6  70 03     BVS $C7AB                       A:00 X:00 Y:00 P:26 SP:FE
C7A8  4C AF C7  JMP $C7AF = EA                  A:00 X:00 Y:00 P:26 SP:FE
C7AF  EA        NOP                             A:00 X:00 Y:00 P:26 SP:FE
C7B0  A9 00     LDA #$00                        A:00 X:00 Y:00 P:26 SP:FE
C7B2  10 04     BPL $C7B8                       A:00 X:00 Y:00 P:26 SP:FE
C7B8  EA        NOP                             A:00 X:00 Y:00 P:26 SP:FE
C7B9  A9 80     LDA #$80                        A:00 X:00 Y:00 P:26 SP:FE
C7BB  10 03     BPL $C7C0                       A:80 X:00 Y:00 P:A4 SP:FE
C7BD  4C D9 C7  JMP $C7D9 = EA                  A:80 X:00 Y:00 P:A4 SP:FE
C7D9  EA        NOP                             A:80 X:00 Y:00 P:A4 SP:FE
C7DA  60        RTS                             A:80 X:00 Y:00 P:A4 SP:FE
C600  20 DB C7  JSR $C7DB = EA                  A:80 X:00 Y:00 P:A4 SP:00
C7DB  EA        NOP                             A:80 X:00 Y:00 P:A4 SP:FE
C7DC  A9 FF     LDA #$FF                        A:80 X:00 Y:00 P:A4 SP:FE
C7DE  85 01     STA $01 = 00                    A:FF X:00 Y:00 P:A4 SP:FE
C7E0  24 01     BIT $01 = FF                    A:FF X:00 Y:00 P:A4 SP:FE
C7E2  A9 00     LDA #$00                        A:FF X:00 Y:00 P:E4 SP:FE
C7E4  38        SEC                             A:00 X:00 Y:00 P:66 SP:FE
C7E5  78        SEI                             A:00 X:00 Y:00 P:67 SP:FE
C7E6  F8        SED                             A:00 X:00 Y:00 P:67 SP:FE
C7E7  08        PHP                             A:00 X:00 Y:00 P:6F SP:FE
C7E8  68        PLA                             A:00 X:00 Y:00 P:6F SP:FD
C7E9  29 EF     AND #$EF                        A:7F X:00 Y:00 P:6D SP:FE
C7EB  C9 6F     CMP #$6F                        A:6F X:00 Y:00 P:6D SP:FE
C7ED  F0 04     BEQ $C7F3                       A:6F X:00 Y:00 P:6F SP:FE
C7F3  EA        NOP                             A:6F X:00 Y:00 P:6F SP:FE
C7F4  A9 40     LDA #$40                        A:6F X:00 Y:00 P:6F SP:FE
C7F6  85 01     STA $01 = FF                    A:40 X:00 Y:00 P:6D SP:FE
C7F8  24 01     BIT $01 = 40                    A:40 X:00 Y:00 P:6D SP:FE
C7FA  D8        CLD                             A:40 X:00 Y:00 P:6D SP:FE
C7FB  A9 10     LDA #$10                        A:40 X:00 Y:00 P:65 SP:FE
C7FD  18        CEC                             A:10 X:00 Y:00 P:65 SP:FE
C7FE  08        PHP                             A:10 X:00 Y:00 P:64 SP:FE
C7FF  68        PLA                             A:10 X:00 Y:00 P:64 SP:FD
C800  29 EF     AND #$EF                        A:74 X:00 Y:00 P:64 SP:FE
C802  C9 64     CMP #$64                        A:64 X:00 Y:00 P:64 SP:FE
C804  F0 04     BEQ $C80A                       A:64 X:00 Y:00 P:67 SP:FE
C80A  EA        NOP                             A:64 X:00 Y:00 P:67 SP:FE
C80B  A9 80     LDA #$80                        A:64 X:00 Y:00 P:67 SP:FE
C80D  85 01     STA $01 = 40                    A:80 X:00 Y:00 P:E5 SP:FE
C80F  24 01     BIT $01 = 80                    A:80 X:00 Y:00 P:E5 SP:FE
C811  F8        SED                             A:80 X:00 Y:00 P:A5 SP:FE
C812  A9 00     LDA #$00                        A:80 X:00 Y:00 P:AD SP:FE
C814  38        SEC                             A:00 X:00 Y:00 P:2F SP:FE
C815  08        PHP                             A:00 X:00 Y:00 P:2F SP:FE
C816  68        PLA                             A:00 X:00 Y:00 P:2F SP:FD
C817  29 EF     AND #$EF                        A:3F X:00 Y:00 P:2D SP:FE
C819  C9 2F     CMP #$2F                        A:2F X:00 Y:00 P:2D SP:FE
C81B  F0 04     BEQ $C821                       A:2F X:00 Y:00 P:2F SP:FE
C821  EA        NOP                             A:2F X:00 Y:00 P:2F SP:FE
C822  A9 FF     LDA #$FF                        A:2F X:00 Y:00 P:2F SP:FE
C824  48        PHA                             A:FF X:00 Y:00 P:AD SP:FE
C825  28        PLP                             A:FF X:00 Y:00 P:AD SP:FD
C826  D0 09     BNE $C831                       A:FF X:00 Y:00 P:EF SP:FE
C828  10 07     BPL $C831                       A:FF X:00 Y:00 P:EF SP:FE
C82A  50 05     BVC $C831                       A:FF X:00 Y:00 P:EF SP:FE
C82C  90 03     BCC $C831                       A:FF X:00 Y:00 P:EF SP:FE
C82E  4C 35 C8  JMP $C835 = EA                  A:FF X:00 Y:00 P:EF SP:FE
C835  EA        NOP                             A:FF X:00 Y:00 P:EF SP:FE
C836  A9 04     LDA #$04                        A:FF X:00 Y:00 P:EF SP:FE
C838  48        PHA                             A:04 X:00 Y:00 P:6D SP:FE
C839  28        PLP                             A:04 X:00 Y:00 P:6D SP:FD
C83A  F0 09     BEQ $C845                       A:04 X:00 Y:00 P:24 SP:FE
C83C  30 07     BMI $C845                       A:04 X:00 Y:00 P:24 SP:FE
C83E  70 05     BVS $C845                       A:04 X:00 Y:00 P:24 SP:FE
C840  B0 03     BCS $C845                       A:04 X:00 Y:00 P:24 SP:FE
C842  4C 49 C8  JMP $C849 = EA                  A:04 X:00 Y:00 P:24 SP:FE
C849  EA        NOP                             A:04 X:00 Y:00 P:24 SP:FE
C84A  F8        SED                             A:04 X:00 Y:00 P:24 SP:FE
C84B  A9 FF     LDA #$FF                        A:04 X:00 Y:00 P:2C SP:FE
C84D  85 01     STA $01 = 80                    A:FF X:00 Y:00 P:AC SP:FE
C84F  24 01     BIT $01 = FF                    A:FF X:00 Y:00 P:AC SP:FE
C851  18        CEC                             A:FF X:00 Y:00 P:EC SP:FE
C852  A9 00     LDA #$00                        A:FF X:00 Y:00 P:EC SP:FE
C854  48        PHA                             A:00 X:00 Y:00 P:6E SP:FE
C855  A9 FF     LDA #$FF                        A:00 X:00 Y:00 P:6E SP:FD
C857  68        PLA                             A:FF X:00 Y:00 P:EC SP:FD
C858  D0 09     BNE $C863                       A:00 X:00 Y:00 P:6E SP:FE
C85A  30 07     BMI $C863                       A:00 X:00 Y:00 P:6E SP:FE
C85C  50 05     BVC $C863                       A:00 X:00 Y:00 P:6E SP:FE
C85E  B0 03     BCS $C863                       A:00 X:00 Y:00 P:6E SP:FE
C860  4C 67 C8  JMP $C867 = EA                  A:00 X:00 Y:00 P:6E SP:FE
C867  EA        NOP                             A:00 X:00 Y:00 P:6E SP:FE
C868  A9 00     LDA #$00                        A:00 X:00 Y:00 P:6E SP:FE
C86A  85 01     STA $01 = FF                    A:00 X:00 Y:00 P:6E SP:FE
C86C  24 01     BIT $01 = 00                    A:00 X:00 Y:00 P:6E SP:FE
C86E  38        SEC                             A:00 X:00 Y:00 P:2E SP:FE
C86F  A9 FF     LDA #$FF                        A:00 X:00 Y:00 P:2F SP:FE
C871  48        PHA                             A:FF X:00 Y:00 P:AD SP:FE
C872  A9 00     LDA #$00                        A:FF X:00 Y:00 P:AD SP:FD
C874  68        PLA                             A:00 X:00 Y:00 P:2F SP:FD
C875  F0 09     BEQ $C880                       A:FF X:00 Y:00 P:AD SP:FE
C877  10 07     BPL $C880                       A:FF X:00 Y:00 P:AD SP:FE
C879  70 05     BVS $C880                       A:FF X:00 Y:00 P:AD SP:FE
C87B  90 03     BCC $C880                       A:FF X:00 Y:00 P:AD SP:FE
C87D  4C 84 C8  JMP $C884 = 60                  A:FF X:00 Y:00 P:AD SP:FE
C884  60        RTS                             A:FF X:00 Y:00 P:AD SP:FE
C603  20 85 C8  JSR $C885 = EA                  A:FF X:00 Y:00 P:AD SP:00
C885  EA        NOP                             A:FF X:00 Y:00 P:AD SP:FE
C886  18        CEC                             A:FF X:00 Y:00 P:AD SP:FE
C887  A9 FF     LDA #$FF                        A:FF X:00 Y:00 P:AC SP:FE
C889  85 01     STA $01 = 00                    A:FF X:00 Y:00 P:AC SP:FE
C88B  24 01     BIT $01 = FF                    A:FF X:00 Y:00 P:AC SP:FE
C88D  A9 55     LDA #$55                        A:FF X:00 Y:00 P:EC SP:FE
C88F  09 AA     ORA #$AA                        A:55 X:00 Y:00 P:6C SP:FE
C891  B0 0B     BCS $C89E                       A:FF X:00 Y:00 P:EC SP:FE
C893  10 09     BPL $C89E                       A:FF X:00 Y:00 P:EC SP:FE
C895  C9 FF     CMP #$FF                        A:FF X:00 Y:00 P:EC SP:FE
C897  D0 05     BNE $C89E                       A:FF X:00 Y:00 P:6F SP:FE
C899  50 03     BVC $C89E                       A:FF X:00 Y:00 P:6F SP:FE
C89B  4C A2 C8  JMP $C8A2 = EA                  A:FF X:00 Y:00 P:6F SP:FE
C8A2  EA        NOP                             A:FF X:00 Y:00 P:6F SP:FE
C8A3  38        SEC                             A:FF X:00 Y:00 P:6F SP:FE
C8A4  B8        CLV                             A:FF X:00 Y:00 P:6F SP:FE
C8A5  A9 00     LDA #$00                        A:FF X:00 Y:00 P:2F SP:FE
C8A7  09 00     ORA #$00                        A:00 X:00 Y:00 P:2F SP:FE
C8A9  D0 09     BNE $C8B4                       A:00 X:00 Y:00 P:2F SP:FE
C8AB  70 07     BVS $C8B4                       A:00 X:00 Y:00 P:2F SP:FE
C8AD  90 05     BCC $C8B4                       A:00 X:00 Y:00 P:2F SP:FE
C8AF  30 03     BMI $C8B4                       A:00 X:00 Y:00 P:2F SP:FE
C8B1  4C B8 C8  JMP $C8B8 = EA                  A:00 X:00 Y:00 P:2F SP:FE
C8B8  EA        NOP                             A:00 X:00 Y:00 P:2F SP:FE
C8B9  18        CEC                             A:00 X:00 Y:00 P:2F SP:FE
C8BA  24 01     BIT $01 = FF                    A:00 X:00 Y:00 P:2E SP:FE
C8BC  A9 55     LDA #$55                        A:00 X:00 Y:00 P:EE SP:FE
C8BE  29 AA     AND #$AA                        A:55 X:00 Y:00 P:6C SP:FE
C8C0  D0 09     BNE $C8CB                       A:00 X:00 Y:00 P:6E SP:FE
C8C2  50 07     BVC $C8CB                       A:00 X:00 Y:00 P:6E SP:FE
C8C4  B0 05     BCS $C8CB                       A:00 X:00 Y:00 P:6E SP:FE
C8C6  30 03     BMI $C8CB                       A:00 X:00 Y:00 P:6E SP:FE
C8C8  4C CF C8  JMP $C8CF = EA                  A:00 X:00 Y:00 P:6E SP:FE
C8CF  EA        NOP                             A:00 X:00 Y:00 P:6E SP:FE
C8D0  38        SEC                             A:00 X:00 Y:00 P:6E SP:FE
C8D1  B8        CLV                             A:00 X:00 Y:00 P:6F SP:FE
C8D2  A9 F8     LDA #$F8                        A:00 X:00 Y:00 P:2F SP:FE
C8D4  29 EF     AND #$EF                        A:F8 X:00 Y:00 P:AD SP:FE
C8D6  90 0B     BCC $C8E3                       A:E8 X:00 Y:00 P:AD SP:FE
C8D8  10 09     BPL $C8E3                       A:E8 X:00 Y:00 P:AD SP:FE
C8DA  C9 E8     CMP #$E8                        A:E8 X:00 Y:00 P:AD SP:FE
C8DC  D0 05     BNE $C8E3                       A:E8 X:00 Y:00 P:2F SP:FE
C8DE  70 03     BVS $C8E3                       A:E8 X:00 Y:00 P:2F SP:FE
C8E0  4C E7 C8  JMP $C8E7 = EA                  A:E8 X:00 Y:00 P:2F SP:FE
C8E7  EA        NOP                             A:E8 X:00 Y:00 P:2F SP:FE
C8E8  18        CEC                             A:E8 X:00 Y:00 P:2F SP:FE
C8E9  24 01     BIT $01 = FF                    A:E8 X:00 Y:00 P:2E SP:FE
C8EB  A9 5F     LDA #$5F                        A:E8 X:00 Y:00 P:EC SP:FE
C8ED  49 AA     EOR #$AA                        A:5F X:00 Y:00 P:6C SP:FE
C8EF  B0 0B     BCS $C8FC                       A:F5 X:00 Y:00 P:EC SP:FE
C8F1  10 09     BPL $C8FC                       A:F5 X:00 Y:00 P:EC SP:FE
C8F3  C9 F5     CMP #$F5                        A:F5 X:00 Y:00 P:EC SP:FE
C8F5  D0 05     BNE $C8FC                       A:F5 X:00 Y:00 P:6F SP:FE
C8F7  50 03     BVC $C8FC                       A:F5 X:00 Y:00 P:6F SP:FE
C8F9  4C 00 C9  JMP $C900 = EA                  A:F5 X:00 Y:00 P:6F SP:FE
C900  EA        NOP                             A:F5 X:00 Y:00 P:6F SP:FE
C901  38        SEC                             A:F5 X:00 Y:00 P:6F SP:FE
C902  B8        CLV                             A:F5 X:00 Y:00 P:6F SP:FE
C903  A9 70     LDA #$70                        A:F5 X:00 Y:00 P:2F SP:FE
C905  49 70     EOR #$70                        A:70 X:00 Y:00 P:2D SP:FE
C907  D0 09     BNE $C912                       A:00 X:00 Y:00 P:2F SP:FE
C909  70 07     BVS $C912                       A:00 X:00 Y:00 P:2F SP:FE
C90B  90 05     BCC $C912                       A:00 X:00 Y:00 P:2F SP:FE
C90D  30 03     BMI $C912                       A:00 X:00 Y:00 P:2F SP:FE
C90F  4C 16 C9  JMP $C916 = EA                  A:00 X:00 Y:00 P:2F SP:FE
C916  EA        NOP                             A:00 X:00 Y:00 P:2F SP:FE
C917  18        CEC                             A:00 X:00 Y:00 P:2F SP:FE
C918  24 01     BIT $01 = FF                    A:00 X:00 Y:00 P:2E SP:FE
C91A  A9 00     LDA #$00                        A:00 X:00 Y:00 P:EE SP:FE
C91C  69 69     ADC #$69                        A:00 X:00 Y:00 P:6E SP:FE
C91E  30 0B     BMI $C92B                       A:69 X:00 Y:00 P:2C SP:FE
C920  B0 09     BCS $C92B                       A:69 X:00 Y:00 P:2C SP:FE
C922  C9 69     CMP #$69                        A:69 X:00 Y:00 P:2C SP:FE
C924  D0 05     BNE $C92B                       A:69 X:00 Y:00 P:2F SP:FE
C926  70 03     BVS $C92B                       A:69 X:00 Y:00 P:2F SP:FE
C928  4C 2F C9  JMP $C92F = EA                  A:69 X:00 Y:00 P:2F SP:FE
C92F  EA        NOP                             A:69 X:00 Y:00 P:2F SP:FE
C930  38        SEC                             A:69 X:00 Y:00 P:2F SP:FE
C931  F8        SED                             A:69 X:00 Y:00 P:2F SP:FE
C932  24 01     BIT $01 = FF                    A:69 X:00 Y:00 P:2F SP:FE
C934  A9 01     LDA #$01                        A:69 X:00 Y:00 P:ED SP:FE
C936  69 69     ADC #$69                        A:01 X:00 Y:00 P:6D SP:FE
C938  30 0B     BMI $C945                       A:6B X:00 Y:00 P:2C SP:FE
C93A  B0 09     BCS $C945                       A:6B X:00 Y:00 P:2C SP:FE
C93C  C9 6B     CMP #$6B                        A:6B X:00 Y:00 P:2C SP:FE
C93E  D0 05     BNE $C945                       A:6B X:00 Y:00 P:2F SP:FE
C940  70 03     BVS $C945                       A:6B X:00 Y:00 P:2F SP:FE
C942  4C 49 C9  JMP $C949 = EA                  A:6B X:00 Y:00 P:2F SP:FE
C949  EA        NOP                             A:6B X:00 Y:00 P:2F SP:FE
C94A  D8        CLD                             A:6B X:00 Y:00 P:2F SP:FE
C94B  38        SEC                             A:6B X:00 Y:00 P:27 SP:FE
C94C  B8        CLV                             A:6B X:00 Y:00 P:27 SP:FE
C94D  A9 7F     LDA #$7F                        A:6B X:00 Y:00 P:27 SP:FE
C94F  69 7F     ADC #$7F                        A:7F X:00 Y:00 P:25 SP:FE
C951  10 0B     BPL $C95E                       A:FF X:00 Y:00 P:E4 SP:FE
C953  B0 09     BCS $C95E                       A:FF X:00 Y:00 P:E4 SP:FE
C955  C9 FF     CMP #$FF                        A:FF X:00 Y:00 P:E4 SP:FE
C957  D0 05     BNE $C95E                       A:FF X:00 Y:00 P:67 SP:FE
C959  50 03     BVC $C95E                       A:FF X:00 Y:00 P:67 SP:FE
C95B  4C 62 C9  JMP $C962 = EA                  A:FF X:00 Y:00 P:67 SP:FE
C962  EA        NOP                             A:FF X:00 Y:00 P:67 SP:FE
C963  18        CEC                             A:FF X:00 Y:00 P:67 SP:FE
C964  24 01     BIT $01 = FF                    A:FF X:00 Y:00 P:66 SP:FE
C966  A9 7F     LDA #$7F                        A:FF X:00 Y:00 P:E4 SP:FE
C968  69 80     ADC #$80                        A:7F X:00 Y:00 P:64 SP:FE
C96A  10 0B     BPL $C977                       A:FF X:00 Y:00 P:A4 SP:FE
C96C  B0 09     BCS $C977                       A:FF X:00 Y:00 P:A4 SP:FE
C96E  C9 FF     CMP #$FF                        A:FF X:00 Y:00 P:A4 SP:FE
C970  D0 05     BNE $C977                       A:FF X:00 Y:00 P:27 SP:FE
C972  70 03     BVS $C977                       A:FF X:00 Y:00 P:27 SP:FE
C974  4C 7B C9  JMP $C97B = EA                  A:FF X:00 Y:00 P:27 SP:FE
C97B  EA        NOP                             A:FF X:00 Y:00 P:27 SP:FE
C97C  38        SEC                             A:FF X:00 Y:00 P:27 SP:FE
C97D  B8        CLV                             A:FF X:00 Y:00 P:27 SP:FE
C97E  A9 7F     LDA #$7F                        A:FF X:00 Y:00 P:27 SP:FE
C980  69 80     ADC #$80                        A:7F X:00 Y:00 P:25 SP:FE
C982  D0 09     BNE $C98D                       A:00 X:00 Y:00 P:27 SP:FE
C984  30 07     BMI $C98D                       A:00 X:00 Y:00 P:27 SP:FE
C986  70 05     BVS $C98D                       A:00 X:00 Y:00 P:27 SP:FE
C988  90 03     BCC $C98D                       A:00 X:00 Y:00 P:27 SP:FE
C98A  4C 91 C9  JMP $C991 = EA                  A:00 X:00 Y:00 P:27 SP:FE
C991  EA        NOP                             A:00 X:00 Y:00 P:27 SP:FE
C992  38        SEC                             A:00 X:00 Y:00 P:27 SP:FE
C993  B8        CLV                             A:00 X:00 Y:00 P:27 SP:FE
C994  A9 9F     LDA #$9F                        A:00 X:00 Y:00 P:27 SP:FE
C996  F0 09     BEQ $C9A1                       A:9F X:00 Y:00 P:A5 SP:FE
C998  10 07     BPL $C9A1                       A:9F X:00 Y:00 P:A5 SP:FE
C99A  70 05     BVS $C9A1                       A:9F X:00 Y:00 P:A5 SP:FE
C99C  90 03     BCC $C9A1                       A:9F X:00 Y:00 P:A5 SP:FE
C99E  4C A5 C9  JMP $C9A5 = EA                  A:9F X:00 Y:00 P:A5 SP:FE
C9A5  EA        NOP                             A:9F X:00 Y:00 P:A5 SP:FE
C9A6  18        CEC                             A:9F X:00 Y:00 P:A5 SP:FE
C9A7  24 01     BIT $01 = FF                    A:9F X:00 Y:00 P:A4 SP:FE
C9A9  A9 00     LDA #$00                        A:9F X:00 Y:00 P:E4 SP:FE
C9AB  D0 09     BNE $C9B6                       A:00 X:00 Y:00 P:66 SP:FE
C9AD  30 07     BMI $C9B6                       A:00 X:00 Y:00 P:66 SP:FE
C9AF  50 05     BVC $C9B6                       A:00 X:00 Y:00 P:66 SP:FE
C9B1  B0 03     BCS $C9B6                       A:00 X:00 Y:00 P:66 SP:FE
C9B3  4C BA C9  JMP $C9BA = EA                  A:00 X:00 Y:00 P:66 SP:FE
C9BA  EA        NOP                             A:00 X:00 Y:00 P:66 SP:FE
C9BB  24 01     BIT $01 = FF                    A:00 X:00 Y:00 P:66 SP:FE
C9BD  A9 40     LDA #$40                        A:00 X:00 Y:00 P:E6 SP:FE
C9BF  C9 40     CMP #$40                        A:40 X:00 Y:00 P:64 SP:FE
C9C1  30 09     BMI $C9CC                       A:40 X:00 Y:00 P:67 SP:FE
C9C3  90 07     BCC $C9CC                       A:40 X:00 Y:00 P:67 SP:FE
C9C5  D0 05     BNE $C9CC                       A:40 X:00 Y:00 P:67 SP:FE
C9C7  50 03     BVC $C9CC                       A:40 X:00 Y:00 P:67 SP:FE
C9C9  4C D0 C9  JMP $C9D0 = EA                  A:40 X:00 Y:00 P:67 SP:FE
C9D0  EA        NOP                             A:40 X:00 Y:00 P:67 SP:FE
C9D1  B8        CLV                             A:40 X:00 Y:00 P:67 SP:FE
C9D2  C9 3F     CMP #$3F                        A:40 X:00 Y:00 P:27 SP:FE
C9D4  F0 09     BEQ $C9DF                       A:40 X:00 Y:00 P:25 SP:FE
C9D6  30 07     BMI $C9DF                       A:40 X:00 Y:00 P:25 SP:FE
C9D8  90 05     BCC $C9DF                       A:40 X:00 Y:00 P:25 SP:FE
C9DA  70 03     BVS $C9DF                       A:40 X:00 Y:00 P:25 SP:FE
C9DC  4C E3 C9  JMP $C9E3 = EA                  A:40 X:00 Y:00 P:25 SP:FE
C9E3  EA        NOP                             A:40 X:00 Y:00 P:25 SP:FE
C9E4  C9 41     CMP #$41                        A:40 X:00 Y:00 P:25 SP:FE
C9E6  F0 07     BEQ $C9EF                       A:40 X:00 Y:00 P:A4 SP:FE
C9E8  10 05     BPL $C9EF                       A:40 X:00 Y:00 P:A4 SP:FE
C9EA  10 03     BPL $C9EF                       A:40 X:00 Y:00 P:A4 SP:FE
C9EC  4C F3 C9  JMP $C9F3 = EA                  A:40 X:00 Y:00 P:A4 SP:FE
C9F3  EA        NOP                             A:40 X:00 Y:00 P:A4 SP:FE
C9F4  A9 80     LDA #$80                        A:40 X:00 Y:00 P:A4 SP:FE
C9F6  C9 00     CMP #$00                        A:80 X:00 Y:00 P:A4 SP:FE
C9F8  F0 07     BEQ $CA01                       A:80 X:00 Y:00 P:A5 SP:FE
C9FA  10 05     BPL $CA01                       A:80 X:00 Y:00 P:A5 SP:FE
C9FC  90 03     BCC $CA01                       A:80 X:00 Y:00 P:A5 SP:FE
C9FE  4C 05 CA  JMP $CA05 = EA                  A:80 X:00 Y:00 P:A5 SP:FE
CA05  EA        NOP                             A:80 X:00 Y:00 P:A5 SP:FE
CA06  C9 80     CMP #$80                        A:80 X:00 Y:00 P:A5 SP:FE
CA08  D0 07     BNE $CA11                       A:80 X:00 Y:00 P:27 SP:FE
CA0A  30 05     BMI $CA11                       A:80 X:00 Y:00 P:27 SP:FE
CA0C  90 03     BCC $CA11                       A:80 X:00 Y:00 P:27 SP:FE
CA0E  4C 15 CA  JMP $CA15 = EA                  A:80 X:00 Y:00 P:27 SP:FE
CA15  EA        NOP                             A:80 X:00 Y:00 P:27 SP:FE
CA16  C9 81     CMP #$81                        A:80 X:00 Y:00 P:27 SP:FE
CA18  B0 07     BCS $CA21                       A:80 X:00 Y:00 P:A4 SP:FE
CA1A  F0 05     BEQ $CA21                       A:80 X:00 Y:00 P:A4 SP:FE
CA1C  10 03     BPL $CA21                       A:80 X:00 Y:00 P:A4 SP:FE
CA1E  4C 25 CA  JMP $CA25 = EA                  A:80 X:00 Y:00 P:A4 SP:FE
CA25  EA        NOP                             A:80 X:00 Y:00 P:A4 SP:FE
CA26  C9 7F     CMP #$7F                        A:80 X:00 Y:00 P:A4 SP:FE
CA28  90 07     BCC $CA31                       A:80 X:00 Y:00 P:25 SP:FE
CA2A  F0 05     BEQ $CA31                       A:80 X:00 Y:00 P:25 SP:FE
CA2C  30 03     BMI $CA31                       A:80 X:00 Y:00 P:25 SP:FE
CA2E  4C 35 CA  JMP $CA35 = EA                  A:80 X:00 Y:00 P:25 SP:FE
CA35  EA        NOP                             A:80 X:00 Y:00 P:25 SP:FE
CA36  24 01     BIT $01 = FF                    A:80 X:00 Y:00 P:25 SP:FE
CA38  A0 40     LDY #$40                        A:80 X:00 Y:00 P:E5 SP:FE
CA3A  C0 40     CPY #$40                        A:80 X:00 Y:40 P:65 SP:FE
CA3C  D0 09     BNE $CA47                       A:80 X:00 Y:40 P:67 SP:FE
CA3E  30 07     BMI $CA47                       A:80 X:00 Y:40 P:67 SP:FE
CA40  90 05     BCC $CA47                       A:80 X:00 Y:40 P:67 SP:FE
CA42  50 03     BVC $CA47                       A:80 X:00 Y:40 P:67 SP:FE
CA44  4C 4B CA  JMP $CA4B = EA                  A:80 X:00 Y:40 P:67 SP:FE
CA4B  EA        NOP                             A:80 X:00 Y:40 P:67 SP:FE
CA4C  B8        CLV                             A:80 X:00 Y:40 P:67 SP:FE
CA4D  C0 3F     CPY #$3F                        A:80 X:00 Y:40 P:27 SP:FE
CA4F  F0 09     BEQ $CA5A                       A:80 X:00 Y:40 P:25 SP:FE
CA51  30 07     BMI $CA5A                       A:80 X:00 Y:40 P:25 SP:FE
CA53  90 05     BCC $CA5A                       A:80 X:00 Y:40 P:25 SP:FE
CA55  70 03     BVS $CA5A                       A:80 X:00 Y:40 P:25 SP:FE
CA57  4C 5E CA  JMP $CA5E = EA                  A:80 X:00 Y:40 P:25 SP:FE
CA5E  EA        NOP                             A:80 X:00 Y:40 P:25 SP:FE
CA5F  C0 41     CPY #$41                        A:80 X:00 Y:40 P:25 SP:FE
CA61  F0 07     BEQ $CA6A                       A:80 X:00 Y:40 P:A4 SP:FE
CA63  10 05     BPL $CA6A                       A:80 X:00 Y:40 P:A4 SP:FE
CA65  10 03     BPL $CA6A                       A:80 X:00 Y:40 P:A4 SP:FE
CA67  4C 6E CA  JMP $CA6E = EA                  A:80 X:00 Y:40 P:A4 SP:FE
CA6E  EA        NOP                             A:80 X:00 Y:40 P:A4 SP:FE
CA6F  A0 80     LDY #$80                        A:80 X:00 Y:40 P:A4 SP:FE
CA71  C0 00     CPY #$00                        A:80 X:00 Y:80 P:A4 SP:FE
CA73  F0 07     BEQ $CA7C                       A:80 X:00 Y:80 P:A5 SP:FE
CA75  10 05     BPL $CA7C                       A:80 X:00 Y:80 P:A5 SP:FE
CA77  90 03     BCC $CA7C                       A:80 X:00 Y:80 P:A5 SP:FE
CA79  4C 80 CA  JMP $CA80 = EA                  A:80 X:00 Y:80 P:A5 SP:FE
CA80  EA        NOP                             A:80 X:00 Y:80 P:A5 SP:FE
CA81  C0 80     CPY #$80                        A:80 X:00 Y:80 P:A5 SP:FE
CA83  D0 07     BNE $CA8C                       A:80 X:00 Y:80 P:27 SP:FE
CA85  30 05     BMI $CA8C                       A:80 X:00 Y:80 P:27 SP:FE
CA87  90 03     BCC $CA8C                       A:80 X:00 Y:80 P:27 SP:FE
CA89  4C 90 CA  JMP $CA90 = EA                  A:80 X:00 Y:80 P:27 SP:FE
CA90  EA        NOP                             A:80 X:00 Y:80 P:27 SP:FE
CA91  C0 81     CPY #$81                        A:80 X:00 Y:80 P:27 SP:FE
CA93  B0 07     BCS $CA9C                       A:80 X:00 Y:80 P:A4 SP:FE
CA95  F0 05     BEQ $CA9C                       A:80 X:00 Y:80 P:A4 SP:FE
CA97  10 03     BPL $CA9C                       A:80 X:00 Y:80 P:A4 SP:FE
CA99  4C A0 CA  JMP $CAA0 = EA                  A:80 X:00 Y:80 P:A4 SP:FE
CAA0  EA        NOP                             A:80 X:00 Y:80 P:A4 SP:FE
CAA1  C0 7F     CPY #$7F                        A:80 X:00 Y:80 P:A4 SP:FE
CAA3  90 07     BCC $CAAC                       A:80 X:00 Y:80 P:25 SP:FE
CAA5  F0 05     BEQ $CAAC                       A:80 X:00 Y:80 P:25 SP:FE
CAA7  30 03     BMI $CAAC                       A:80 X:00 Y:80 P:25 SP:FE
CAA9  4C B0 CA  JMP $CAB0 = EA                  A:80 X:00 Y:80 P:25 SP:FE
CAB0  EA        NOP                             A:80 X:00 Y:80 P:25 SP:FE
CAB1  24 01     BIT $01 = FF                    A:80 X:00 Y:80 P:25 SP:FE
CAB3  A2 40     LDX #$40                        A:80 X:00 Y:80 P:E5 SP:FE
CAB5  E0 40     CPX #$40                        A:80 X:40 Y:80 P:65 SP:FE
CAB7  D0 09     BNE $CAC2                       A:80 X:40 Y:80 P:67 SP:FE
CAB9  30 07     BMI $CAC2                       A:80 X:40 Y:80 P:67 SP:FE
CABB  90 05     BCC $CAC2                       A:80 X:40 Y:80 P:67 SP:FE
CABD  50 03     BVC $CAC2                       A:80 X:40 Y:80 P:67 SP:FE
CABF  4C C6 CA  JMP $CAC6 = EA                  A:80 X:40 Y:80 P:67 SP:FE
CAC6  EA        NOP                             A:80 X:40 Y:80 P:67 SP:FE
CAC7  B8        CLV                             A:80 X:40 Y:80 P:67 SP:FE
CAC8  E0 3F     CPX #$3F                        A:80 X:40 Y:80 P:27 SP:FE
CACA  F0 09     BEQ $CAD5                       A:80 X:40 Y:80 P:25 SP:FE
CACC  30 07     BMI $CAD5                       A:80 X:40 Y:80 P:25 SP:FE
CACE  90 05     BCC $CAD5                       A:80 X:40 Y:80 P:25 SP:FE
CAD0  70 03     BVS $CAD5                       A:80 X:40 Y:80 P:25 SP:FE
CAD2  4C D9 CA  JMP $CAD9 = EA                  A:80 X:40 Y:80 P:25 SP:FE
CAD9  EA        NOP                             A:80 X:40 Y:80 P:25 SP:FE
CADA  E0 41     CPX #$41                        A:80 X:40 Y:80 P:25 SP:FE
CADC  F0 07     BEQ $CAE5                       A:80 X:40 Y:80 P:A4 SP:FE
CADE  10 05     BPL $CAE5                       A:80 X:40 Y:80 P:A4 SP:FE
CAE0  10 03     BPL $CAE5                       A:80 X:40 Y:80 P:A4 SP:FE
CAE2  4C E9 CA  JMP $CAE9 = EA                  A:80 X:40 Y:80 P:A4 SP:FE
CAE9  EA        NOP                             A:80 X:40 Y:80 P:A4 SP:FE
CAEA  A2 80     LDX #$80                        A:80 X:40 Y:80 P:A4 SP:FE
CAEC  E0 00     CPX #$00                        A:80 X:80 Y:80 P:A4 SP:FE
CAEE  F0 07     BEQ $CAF7                       A:80 X:80 Y:80 P:A5 SP:FE
CAF0  10 05     BPL $CAF7                       A:80 X:80 Y:80 P:A5 SP:FE
CAF2  90 03     BCC $CAF7                       A:80 X:80 Y:80 P:A5 SP:FE
CAF4  4C FB CA  JMP $CAFB = EA                  A:80 X:80 Y:80 P:A5 SP:FE
CAFB  EA        NOP                             A:80 X:80 Y:80 P:A5 SP:FE
CAFC  E0 80     CPX #$80                        A:80 X:80 Y:80 P:A5 SP:FE
CAFE  D0 07     BNE $CB07                       A:80 X:80 Y:80 P:27 SP:FE
CB00  30 05     BMI $CB07                       A:80 X:80 Y:80 P:27 SP:FE
CB02  90 03     BCC $CB07                       A:80 X:80 Y:80 P:27 SP:FE
CB04  4C 0B CB  JMP $CB0B = EA                  A:80 X:80 Y:80 P:27 SP:FE
CB0B  EA        NOP                             A:80 X:80 Y:80 P:27 SP:FE
CB0C  E0 81     CPX #$81                        A:80 X:80 Y:80 P:27 SP:FE
CB0E  B0 07     BCS $CB17                       A:80 X:80 Y:80 P:A4 SP:FE
CB10  F0 05     BEQ $CB17                       A:80 X:80 Y:80 P:A4 SP:FE
CB12  10 03     BPL $CB17                       A:80 X:80 Y:80 P:A4 SP:FE
CB14  4C 1B CB  JMP $CB1B = EA                  A:80 X:80 Y:80 P:A4 SP:FE
CB1B  EA        NOP                             A:80 X:80 Y:80 P:A4 SP:FE
CB1C  E0 7F     CPX #$7F                        A:80 X:80 Y:80 P:A4 SP:FE
CB1E  90 07     BCC $CB27                       A:80 X:80 Y:80 P:25 SP:FE
CB20  F0 05     BEQ $CB27                       A:80 X:80 Y:80 P:25 SP:FE
CB22  30 03     BMI $CB27                       A:80 X:80 Y:80 P:25 SP:FE
CB24  4C 2B CB  JMP $CB2B = EA                  A:80 X:80 Y:80 P:25 SP:FE
CB2B  EA        NOP                             A:80 X:80 Y:80 P:25 SP:FE
CB2C  38        SEC                             A:80 X:80 Y:80 P:25 SP:FE
CB2D  B8        CLV                             A:80 X:80 Y:80 P:25 SP:FE
CB2E  A2 9F     LDX #$9F                        A:80 X:80 Y:80 P:25 SP:FE
CB30  F0 09     BEQ $CB3B                       A:80 X:9F Y:80 P:A5 SP:FE
CB32  10 07     BPL $CB3B                       A:80 X:9F Y:80 P:A5 SP:FE
CB34  70 05     BVS $CB3B                       A:80 X:9F Y:80 P:A5 SP:FE
CB36  90 03     BCC $CB3B                       A:80 X:9F Y:80 P:A5 SP:FE
CB38  4C 3F CB  JMP $CB3F = EA                  A:80 X:9F Y:80 P:A5 SP:FE
CB3F  EA        NOP                             A:80 X:9F Y:80 P:A5 SP:FE
CB40  18        CEC                             A:80 X:9F Y:80 P:A5 SP:FE
CB41  24 01     BIT $01 = FF                    A:80 X:9F Y:80 P:A4 SP:FE
CB43  A2 00     LDX #$00                        A:80 X:9F Y:80 P:E4 SP:FE
CB45  D0 09     BNE $CB50                       A:80 X:00 Y:80 P:66 SP:FE
CB47  30 07     BMI $CB50                       A:80 X:00 Y:80 P:66 SP:FE
CB49  50 05     BVC $CB50                       A:80 X:00 Y:80 P:66 SP:FE
CB4B  B0 03     BCS $CB50                       A:80 X:00 Y:80 P:66 SP:FE
CB4D  4C 54 CB  JMP $CB54 = EA                  A:80 X:00 Y:80 P:66 SP:FE
CB54  EA        NOP                             A:80 X:00 Y:80 P:66 SP:FE
CB55  38        SEC                             A:80 X:00 Y:80 P:66 SP:FE
CB56  B8        CLV                             A:80 X:00 Y:80 P:67 SP:FE
CB57  A0 9F     LDY #$9F                        A:80 X:00 Y:80 P:27 SP:FE
CB59  F0 09     BEQ $CB64                       A:80 X:00 Y:9F P:A5 SP:FE
CB5B  10 07     BPL $CB64                       A:80 X:00 Y:9F P:A5 SP:FE
CB5D  70 05     BVS $CB64                       A:80 X:00 Y:9F P:A5 SP:FE
CB5F  90 03     BCC $CB64                       A:80 X:00 Y:9F P:A5 SP:FE
CB61  4C 68 CB  JMP $CB68 = EA                  A:80 X:00 Y:9F P:A5 SP:FE
CB68  EA        NOP                             A:80 X:00 Y:9F P:A5 SP:FE
CB69  18        CEC                             A:80 X:00 Y:9F P:A5 SP:FE
CB6A  24 01     BIT $01 = FF                    A:80 X:00 Y:9F P:A4 SP:FE
CB6C  A0 00     LDY #$00                        A:80 X:00 Y:9F P:E4 SP:FE
CB6E  D0 09     BNE $CB79                       A:80 X:00 Y:00 P:66 SP:FE
CB70  30 07     BMI $CB79                       A:80 X:00 Y:00 P:66 SP:FE
CB72  50 05     BVC $CB79                       A:80 X:00 Y:00 P:66 SP:FE
CB74  B0 03     BCS $CB79                       A:80 X:00 Y:00 P:66 SP:FE
CB76  4C 7D CB  JMP $CB7D = EA                  A:80 X:00 Y:00 P:66 SP:FE
CB7D  EA        NOP                             A:80 X:00 Y:00 P:66 SP:FE
CB7E  A9 55     LDA #$55                        A:80 X:00 Y:00 P:66 SP:FE
CB80  A2 AA     LDX #$AA                        A:55 X:00 Y:00 P:64 SP:FE
CB82  A0 33     LDY #$33                        A:55 X:AA Y:00 P:E4 SP:FE
CB84  C9 55     CMP #$55                        A:55 X:AA Y:33 P:64 SP:FE
CB86  D0 23     BNE $CBAB                       A:55 X:AA Y:33 P:67 SP:FE
CB88  E0 AA     CPX #$AA                        A:55 X:AA Y:33 P:67 SP:FE
CB8A  D0 1F     BNE $CBAB                       A:55 X:AA Y:33 P:67 SP:FE
CB8C  C0 33     CPY #$33                        A:55 X:AA Y:33 P:67 SP:FE
CB8E  D0 1B     BNE $CBAB                       A:55 X:AA Y:33 P:67 SP:FE
CB90  C9 55     CMP #$55                        A:55 X:AA Y:33 P:67 SP:FE
CB92  D0 17     BNE $CBAB                       A:55 X:AA Y:33 P:67 SP:FE
CB94  E0 AA     CPX #$AA                        A:55 X:AA Y:33 P:67 SP:FE
CB96  D0 13     BNE $CBAB                       A:55 X:AA Y:33 P:67 SP:FE
CB98  C0 33     CPY #$33                        A:55 X:AA Y:33 P:67 SP:FE
CB9A  D0 0F     BNE $CBAB                       A:55 X:AA Y:33 P:67 SP:FE
CB9C  C9 56     CMP #$56                        A:55 X:AA Y:33 P:67 SP:FE
CB9E  F0 0B     BEQ $CBAB                       A:55 X:AA Y:33 P:E4 SP:FE
CBA0  E0 AB     CPX #$AB                        A:55 X:AA Y:33 P:E4 SP:FE
CBA2  F0 07     BEQ $CBAB                       A:55 X:AA Y:33 P:E4 SP:FE
CBA4  C0 34     CPY #$34                        A:55 X:AA Y:33 P:E4 SP:FE
CBA6  F0 03     BEQ $CBAB                       A:55 X:AA Y:33 P:E4 SP:FE
CBA8  4C AF CB  JMP $CBAF = A0                  A:55 X:AA Y:33 P:E4 SP:FE
CBAF  A0 71     LDY #$71                        A:55 X:AA Y:33 P:E4 SP:FE
CBB1  20 31 F9  JSR $F931 = 24                  A:55 X:AA Y:71 P:64 SP:FE
F931  24 01     BIT $01 = FF                    A:55 X:AA Y:71 P:64 SP:FC
F933  A9 40     LDA #$40                        A:55 X:AA Y:71 P:E4 SP:FC
F935  38        SEC                             A:40 X:AA Y:71 P:64 SP:FC
F936  60        RTS                             A:40 X:AA Y:71 P:65 SP:FC
CBB4  E9 40     SBC #$40                        A:40 X:AA Y:71 P:65 SP:FE
CBB6  20 37 F9  JSR $F937 = 30                  A:00 X:AA Y:71 P:27 SP:FE
F937  30 0B     BMI $F944                       A:00 X:AA Y:71 P:27 SP:FC
F939  90 09     BCC $F944                       A:00 X:AA Y:71 P:27 SP:FC
F93B  D0 07     BNE $F944                       A:00 X:AA Y:71 P:27 SP:FC
F93D  70 05     BVS $F944                       A:00 X:AA Y:71 P:27 SP:FC
F93F  C9 00     CMP #$00                        A:00 X:AA Y:71 P:27 SP:FC
F941  D0 01     BNE $F944                       A:00 X:AA Y:71 P:27 SP:FC
F943  60        RTS                             A:00 X:AA Y:71 P:27 SP:FC
CBB9  C8        INY                             A:00 X:AA Y:71 P:27 SP:FE
CBBA  20 47 F9  JSR $F947 = B8                  A:00 X:AA Y:72 P:25 SP:FE
F947  B8        CLV                             A:00 X:AA Y:72 P:25 SP:FC
F948  38        SEC                             A:00 X:AA Y:72 P:25 SP:FC
F949  A9 40     LDA #$40                        A:00 X:AA Y:72 P:25 SP:FC
F94B  60        RTS                             A:40 X:AA Y:72 P:25 SP:FC
CBBD  E9 3F     SBC #$3F                        A:40 X:AA Y:72 P:25 SP:FE
CBBF  20 4C F9  JSR $F94C = F0                  A:01 X:AA Y:72 P:25 SP:FE
F94C  F0 0B     BEQ $F959                       A:01 X:AA Y:72 P:25 SP:FC
F94E  30 09     BMI $F959                       A:01 X:AA Y:72 P:25 SP:FC
F950  90 07     BCC $F959                       A:01 X:AA Y:72 P:25 SP:FC
F952  70 05     BVS $F959                       A:01 X:AA Y:72 P:25 SP:FC
F954  C9 01     CMP #$01                        A:01 X:AA Y:72 P:25 SP:FC
F956  D0 01     BNE $F959                       A:01 X:AA Y:72 P:27 SP:FC
F958  60        RTS                             A:01 X:AA Y:72 P:27 SP:FC
CBC2  C8        INY                             A:01 X:AA Y:72 P:27 SP:FE
CBC3  20 5C F9  JSR $F95C = A9                  A:01 X:AA Y:73 P:25 SP:FE
F95C  A9 40     LDA #$40                        A:01 X:AA Y:73 P:25 SP:FC
F95E  38        SEC                             A:40 X:AA Y:73 P:25 SP:FC
F95F  24 01     BIT $01 = FF                    A:40 X:AA Y:73 P:25 SP:FC
F961  60        RTS                             A:40 X:AA Y:73 P:E5 SP:FC
CBC6  E9 41     SBC #$41                        A:40 X:AA Y:73 P:E5 SP:FE
CBC8  20 62 F9  JSR $F962 = B0                  A:FF X:AA Y:73 P:A4 SP:FE
F962  B0 0B     BCS $F96F                       A:FF X:AA Y:73 P:A4 SP:FC
F964  F0 09     BEQ $F96F                       A:FF X:AA Y:73 P:A4 SP:FC
F966  10 07     BPL $F96F                       A:FF X:AA Y:73 P:A4 SP:FC
F968  70 05     BVS $F96F                       A:FF X:AA Y:73 P:A4 SP:FC
F96A  C9 FF     CMP #$FF                        A:FF X:AA Y:73 P:A4 SP:FC
F96C  D0 01     BNE $F96F                       A:FF X:AA Y:73 P:27 SP:FC
F96E  60        RTS                             A:FF X:AA Y:73 P:27 SP:FC
CBCB  C8        INY                             A:FF X:AA Y:73 P:27 SP:FE
CBCC  20 72 F9  JSR $F972 = 18                  A:FF X:AA Y:74 P:25 SP:FE
F972  18        CEC                             A:FF X:AA Y:74 P:25 SP:FC
F973  A9 80     LDA #$80                        A:FF X:AA Y:74 P:24 SP:FC
F975  60        RTS                             A:80 X:AA Y:74 P:A4 SP:FC
CBCF  E9 00     SBC #$00                        A:80 X:AA Y:74 P:A4 SP:FE
CBD1  20 76 F9  JSR $F976 = 90                  A:7F X:AA Y:74 P:65 SP:FE
F976  90 05     BCC $F97D                       A:7F X:AA Y:74 P:65 SP:FC
F978  C9 7F     CMP #$7F                        A:7F X:AA Y:74 P:65 SP:FC
F97A  D0 01     BNE $F97D                       A:7F X:AA Y:74 P:67 SP:FC
F97C  60        RTS                             A:7F X:AA Y:74 P:67 SP:FC
CBD4  C8        INY                             A:7F X:AA Y:74 P:67 SP:FE
CBD5  20 80 F9  JSR $F980 = 38                  A:7F X:AA Y:75 P:65 SP:FE
F980  38        SEC                             A:7F X:AA Y:75 P:65 SP:FC
F981  A9 81     LDA #$81                        A:7F X:AA Y:75 P:65 SP:FC
F983  60        RTS                             A:81 X:AA Y:75 P:E5 SP:FC
CBD8  E9 7F     SBC #$7F                        A:81 X:AA Y:75 P:E5 SP:FE
CBDA  20 84 F9  JSR $F984 = 50                  A:02 X:AA Y:75 P:65 SP:FE
F984  50 07     BVC $F98D                       A:02 X:AA Y:75 P:65 SP:FC
F986  90 05     BCC $F98D                       A:02 X:AA Y:75 P:65 SP:FC
F988  C9 02     CMP #$02                        A:02 X:AA Y:75 P:65 SP:FC
F98A  D0 01     BNE $F98D                       A:02 X:AA Y:75 P:67 SP:FC
F98C  60        RTS                             A:02 X:AA Y:75 P:67 SP:FC
CBDD  60        RTS                             A:02 X:AA Y:75 P:67 SP:FE
C606  20 DE CB  JSR $CBDE = EA                  A:02 X:AA Y:75 P:67 SP:00
CBDE  EA        NOP                             A:02 X:AA Y:75 P:67 SP:FE
CBDF  A9 FF     LDA #$FF                        A:02 X:AA Y:75 P:67 SP:FE
CBE1  85 01     STA $01 = FF                    A:FF X:AA Y:75 P:E5 SP:FE
CBE3  A9 44     LDA #$44                        A:FF X:AA Y:75 P:E5 SP:FE
CBE5  A2 55     LDX #$55                        A:44 X:AA Y:75 P:65 SP:FE
CBE7  A0 66     LDY #$66                        A:44 X:55 Y:75 P:65 SP:FE
CBE9  E8        INX                             A:44 X:55 Y:66 P:65 SP:FE
CBEA  88        DEY                             A:44 X:56 Y:66 P:65 SP:FE
CBEB  E0 56     CPX #$56                        A:44 X:56 Y:65 P:65 SP:FE
CBED  D0 21     BNE $CC10                       A:44 X:56 Y:65 P:67 SP:FE
CBEF  C0 65     CPY #$65                        A:44 X:56 Y:65 P:67 SP:FE
CBF1  D0 1D     BNE $CC10                       A:44 X:56 Y:65 P:67 SP:FE
CBF3  E8        INX                             A:44 X:56 Y:65 P:67 SP:FE
CBF4  E8        INX                             A:44 X:57 Y:65 P:65 SP:FE
CBF5  88        DEY                             A:44 X:58 Y:65 P:65 SP:FE
CBF6  88        DEY                             A:44 X:58 Y:64 P:65 SP:FE
CBF7  E0 58     CPX #$58                        A:44 X:58 Y:63 P:65 SP:FE
CBF9  D0 15     BNE $CC10                       A:44 X:58 Y:63 P:67 SP:FE
CBFB  C0 63     CPY #$63                        A:44 X:58 Y:63 P:67 SP:FE
CBFD  D0 11     BNE $CC10                       A:44 X:58 Y:63 P:67 SP:FE
CBFF  CA        DEX                             A:44 X:58 Y:63 P:67 SP:FE
CC00  C8        INY                             A:44 X:57 Y:63 P:65 SP:FE
CC01  E0 57     CPX #$57                        A:44 X:57 Y:64 P:65 SP:FE
CC03  D0 0B     BNE $CC10                       A:44 X:57 Y:64 P:67 SP:FE
CC05  C0 64     CPY #$64                        A:44 X:57 Y:64 P:67 SP:FE
CC07  D0 07     BNE $CC10                       A:44 X:57 Y:64 P:67 SP:FE
CC09  C9 44     CMP #$44                        A:44 X:57 Y:64 P:67 SP:FE
CC0B  D0 03     BNE $CC10                       A:44 X:57 Y:64 P:67 SP:FE
CC0D  4C 14 CC  JMP $CC14 = EA                  A:44 X:57 Y:64 P:67 SP:FE
CC14  EA        NOP                             A:44 X:57 Y:64 P:67 SP:FE
CC15  38        SEC                             A:44 X:57 Y:64 P:67 SP:FE
CC16  A2 69     LDX #$69                        A:44 X:57 Y:64 P:67 SP:FE
CC18  A9 96     LDA #$96                        A:44 X:69 Y:64 P:65 SP:FE
CC1A  24 01     BIT $01 = FF                    A:96 X:69 Y:64 P:E5 SP:FE
CC1C  A0 FF     LDY #$FF                        A:96 X:69 Y:64 P:E5 SP:FE
CC1E  C8        INY                             A:96 X:69 Y:FF P:E5 SP:FE
CC1F  D0 3D     BNE $CC5E                       A:96 X:69 Y:00 P:67 SP:FE
CC21  30 3B     BMI $CC5E                       A:96 X:69 Y:00 P:67 SP:FE
CC23  90 39     BCC $CC5E                       A:96 X:69 Y:00 P:67 SP:FE
CC25  50 37     BVC $CC5E                       A:96 X:69 Y:00 P:67 SP:FE
CC27  C0 00     CPY #$00                        A:96 X:69 Y:00 P:67 SP:FE
CC29  D0 33     BNE $CC5E                       A:96 X:69 Y:00 P:67 SP:FE
CC2B  C8        INY                             A:96 X:69 Y:00 P:67 SP:FE
CC2C  F0 30     BEQ $CC5E                       A:96 X:69 Y:01 P:65 SP:FE
CC2E  30 2E     BMI $CC5E                       A:96 X:69 Y:01 P:65 SP:FE
CC30  90 2C     BCC $CC5E                       A:96 X:69 Y:01 P:65 SP:FE
CC32  50 2A     BVC $CC5E                       A:96 X:69 Y:01 P:65 SP:FE
CC34  18        CEC                             A:96 X:69 Y:01 P:65 SP:FE
CC35  B8        CLV                             A:96 X:69 Y:01 P:64 SP:FE
CC36  A0 00     LDY #$00                        A:96 X:69 Y:01 P:24 SP:FE
CC38  88        DEY                             A:96 X:69 Y:00 P:26 SP:FE
CC39  F0 23     BEQ $CC5E                       A:96 X:69 Y:FF P:A4 SP:FE
CC3B  10 21     BPL $CC5E                       A:96 X:69 Y:FF P:A4 SP:FE
CC3D  B0 1F     BCS $CC5E                       A:96 X:69 Y:FF P:A4 SP:FE
CC3F  70 1D     BVS $CC5E                       A:96 X:69 Y:FF P:A4 SP:FE
CC41  C0 FF     CPY #$FF                        A:96 X:69 Y:FF P:A4 SP:FE
CC43  D0 19     BNE $CC5E                       A:96 X:69 Y:FF P:27 SP:FE
CC45  18        CEC                             A:96 X:69 Y:FF P:27 SP:FE
CC46  88        DEY                             A:96 X:69 Y:FF P:26 SP:FE
CC47  F0 15     BEQ $CC5E                       A:96 X:69 Y:FE P:A4 SP:FE
CC49  10 13     BPL $CC5E                       A:96 X:69 Y:FE P:A4 SP:FE
CC4B  B0 11     BCS $CC5E                       A:96 X:69 Y:FE P:A4 SP:FE
CC4D  70 0F     BVS $CC5E                       A:96 X:69 Y:FE P:A4 SP:FE
CC4F  C0 FE     CPY #$FE                        A:96 X:69 Y:FE P:A4 SP:FE
CC51  D0 0B     BNE $CC5E                       A:96 X:69 Y:FE P:27 SP:FE
CC53  C9 96     CMP #$96                        A:96 X:69 Y:FE P:27 SP:FE
CC55  D0 07     BNE $CC5E                       A:96 X:69 Y:FE P:27 SP:FE
CC57  E0 69     CPX #$69                        A:96 X:69 Y:FE P:27 SP:FE
CC59  D0 03     BNE $CC5E                       A:96 X:69 Y:FE P:27 SP:FE
CC5B  4C 62 CC  JMP $CC62 = EA                  A:96 X:69 Y:FE P:27 SP:FE
CC62  EA        NOP                             A:96 X:69 Y:FE P:27 SP:FE
CC63  38        SEC                             A:96 X:69 Y:FE P:27 SP:FE
CC64  A0 69     LDY #$69                        A:96 X:69 Y:FE P:27 SP:FE
CC66  A9 96     LDA #$96                        A:96 X:69 Y:69 P:25 SP:FE
CC68  24 01     BIT $01 = FF                    A:96 X:69 Y:69 P:A5 SP:FE
CC6A  A2 FF     LDX #$FF                        A:96 X:69 Y:69 P:E5 SP:FE
CC6C  E8        INX                             A:96 X:FF Y:69 P:E5 SP:FE
CC6D  D0 3D     BNE $CCAC                       A:96 X:00 Y:69 P:67 SP:FE
CC6F  30 3B     BMI $CCAC                       A:96 X:00 Y:69 P:67 SP:FE
CC71  90 39     BCC $CCAC                       A:96 X:00 Y:69 P:67 SP:FE
CC73  50 37     BVC $CCAC                       A:96 X:00 Y:69 P:67 SP:FE
CC75  E0 00     CPX #$00                        A:96 X:00 Y:69 P:67 SP:FE
CC77  D0 33     BNE $CCAC                       A:96 X:00 Y:69 P:67 SP:FE
CC79  E8        INX                             A:96 X:00 Y:69 P:67 SP:FE
CC7A  F0 30     BEQ $CCAC                       A:96 X:01 Y:69 P:65 SP:FE
CC7C  30 2E     BMI $CCAC                       A:96 X:01 Y:69 P:65 SP:FE
CC7E  90 2C     BCC $CCAC                       A:96 X:01 Y:69 P:65 SP:FE
CC80  50 2A     BVC $CCAC                       A:96 X:01 Y:69 P:65 SP:FE
CC82  18        CEC                             A:96 X:01 Y:69 P:65 SP:FE
CC83  B8        CLV                             A:96 X:01 Y:69 P:64 SP:FE
CC84  A2 00     LDX #$00                        A:96 X:01 Y:69 P:24 SP:FE
CC86  CA        DEX                             A:96 X:00 Y:69 P:26 SP:FE
CC87  F0 23     BEQ $CCAC                       A:96 X:FF Y:69 P:A4 SP:FE
CC89  10 21     BPL $CCAC                       A:96 X:FF Y:69 P:A4 SP:FE
CC8B  B0 1F     BCS $CCAC                       A:96 X:FF Y:69 P:A4 SP:FE
CC8D  70 1D     BVS $CCAC                       A:96 X:FF Y:69 P:A4 SP:FE
CC8F  E0 FF     CPX #$FF                        A:96 X:FF Y:69 P:A4 SP:FE
CC91  D0 19     BNE $CCAC                       A:96 X:FF Y:69 P:27 SP:FE
CC93  18        CEC                             A:96 X:FF Y:69 P:27 SP:FE
CC94  CA        DEX                             A:96 X:FF Y:69 P:26 SP:FE
CC95  F0 15     BEQ $CCAC                       A:96 X:FE Y:69 P:A4 SP:FE
CC97  10 13     BPL $CCAC                       A:96 X:FE Y:69 P:A4 SP:FE
CC99  B0 11     BCS $CCAC                       A:96 X:FE Y:69 P:A4 SP:FE
CC9B  70 0F     BVS $CCAC                       A:96 X:FE Y:69 P:A4 SP:FE
CC9D  E0 FE     CPX #$FE                        A:96 X:FE Y:69 P:A4 SP:FE
CC9F  D0 0B     BNE $CCAC                       A:96 X:FE Y:69 P:27 SP:FE
CCA1  C9 96     CMP #$96                        A:96 X:FE Y:69 P:27 SP:FE
CCA3  D0 07     BNE $CCAC                       A:96 X:FE Y:69 P:27 SP:FE
CCA5  C0 69     CPY #$69                        A:96 X:FE Y:69 P:27 SP:FE
CCA7  D0 03     BNE $CCAC                       A:96 X:FE Y:69 P:27 SP:FE
CCA9  4C B0 CC  JMP $CCB0 = EA                  A:96 X:FE Y:69 P:27 SP:FE
CCB0  EA        NOP                             A:96 X:FE Y:69 P:27 SP:FE
CCB1  A9 85     LDA #$85                        A:96 X:FE Y:69 P:27 SP:FE
CCB3  A2 34     LDX #$34                        A:85 X:FE Y:69 P:A5 SP:FE
CCB5  A0 99     LDY #$99                        A:85 X:34 Y:69 P:25 SP:FE
CCB7  18        CEC                             A:85 X:34 Y:99 P:A5 SP:FE
CCB8  24 01     BIT $01 = FF                    A:85 X:34 Y:99 P:A4 SP:FE
CCBA  A8        TAY                             A:85 X:34 Y:99 P:E4 SP:FE
CCBB  F0 2E     BEQ $CCEB                       A:85 X:34 Y:85 P:E4 SP:FE
CCBD  B0 2C     BCS $CCEB                       A:85 X:34 Y:85 P:E4 SP:FE
CCBF  50 2A     BVC $CCEB                       A:85 X:34 Y:85 P:E4 SP:FE
CCC1  10 28     BPL $CCEB                       A:85 X:34 Y:85 P:E4 SP:FE
CCC3  C9 85     CMP #$85                        A:85 X:34 Y:85 P:E4 SP:FE
CCC5  D0 24     BNE $CCEB                       A:85 X:34 Y:85 P:67 SP:FE
CCC7  E0 34     CPX #$34                        A:85 X:34 Y:85 P:67 SP:FE
CCC9  D0 20     BNE $CCEB                       A:85 X:34 Y:85 P:67 SP:FE
CCCB  C0 85     CPY #$85                        A:85 X:34 Y:85 P:67 SP:FE
CCCD  D0 1C     BNE $CCEB                       A:85 X:34 Y:85 P:67 SP:FE
CCCF  A9 00     LDA #$00                        A:85 X:34 Y:85 P:67 SP:FE
CCD1  38        SEC                             A:00 X:34 Y:85 P:67 SP:FE
CCD2  B8        CLV                             A:00 X:34 Y:85 P:67 SP:FE
CCD3  A8        TAY                             A:00 X:34 Y:85 P:27 SP:FE
CCD4  D0 15     BNE $CCEB                       A:00 X:34 Y:00 P:27 SP:FE
CCD6  90 13     BCC $CCEB                       A:00 X:34 Y:00 P:27 SP:FE
CCD8  70 11     BVS $CCEB                       A:00 X:34 Y:00 P:27 SP:FE
CCDA  30 0F     BMI $CCEB                       A:00 X:34 Y:00 P:27 SP:FE
CCDC  C9 00     CMP #$00                        A:00 X:34 Y:00 P:27 SP:FE
CCDE  D0 0B     BNE $CCEB                       A:00 X:34 Y:00 P:27 SP:FE
CCE0  E0 34     CPX #$34                        A:00 X:34 Y:00 P:27 SP:FE
CCE2  D0 07     BNE $CCEB                       A:00 X:34 Y:00 P:27 SP:FE
CCE4  C0 00     CPY #$00                        A:00 X:34 Y:00 P:27 SP:FE
CCE6  D0 03     BNE $CCEB                       A:00 X:34 Y:00 P:27 SP:FE
CCE8  4C EF CC  JMP $CCEF = EA                  A:00 X:34 Y:00 P:27 SP:FE
CCEF  EA        NOP                             A:00 X:34 Y:00 P:27 SP:FE
CCF0  A9 85     LDA #$85                        A:00 X:34 Y:00 P:27 SP:FE
CCF2  A2 34     LDX #$34                        A:85 X:34 Y:00 P:A5 SP:FE
CCF4  A0 99     LDY #$99                        A:85 X:34 Y:00 P:25 SP:FE
CCF6  18        CEC                             A:85 X:34 Y:99 P:A5 SP:FE
CCF7  24 01     BIT $01 = FF                    A:85 X:34 Y:99 P:A4 SP:FE
CCF9  AA        TAX                             A:85 X:34 Y:99 P:E4 SP:FE
CCFA  F0 2E     BEQ $CD2A                       A:85 X:85 Y:99 P:E4 SP:FE
CCFC  B0 2C     BCS $CD2A                       A:85 X:85 Y:99 P:E4 SP:FE
CCFE  50 2A     BVC $CD2A                       A:85 X:85 Y:99 P:E4 SP:FE
CD00  10 28     BPL $CD2A                       A:85 X:85 Y:99 P:E4 SP:FE
CD02  C9 85     CMP #$85                        A:85 X:85 Y:99 P:E4 SP:FE
CD04  D0 24     BNE $CD2A                       A:85 X:85 Y:99 P:67 SP:FE
CD06  E0 85     CPX #$85                        A:85 X:85 Y:99 P:67 SP:FE
CD08  D0 20     BNE $CD2A                       A:85 X:85 Y:99 P:67 SP:FE
CD0A  C0 99     CPY #$99                        A:85 X:85 Y:99 P:67 SP:FE
CD0C  D0 1C     BNE $CD2A                       A:85 X:85 Y:99 P:67 SP:FE
CD0E  A9 00     LDA #$00                        A:85 X:85 Y:99 P:67 SP:FE
CD10  38        SEC                             A:00 X:85 Y:99 P:67 SP:FE
CD11  B8        CLV                             A:00 X:85 Y:99 P:67 SP:FE
CD12  AA        TAX                             A:00 X:85 Y:99 P:27 SP:FE
CD13  D0 15     BNE $CD2A                       A:00 X:00 Y:99 P:27 SP:FE
CD15  90 13     BCC $CD2A                       A:00 X:00 Y:99 P:27 SP:FE
CD17  70 11     BVS $CD2A                       A:00 X:00 Y:99 P:27 SP:FE
CD19  30 0F     BMI $CD2A                       A:00 X:00 Y:99 P:27 SP:FE
CD1B  C9 00     CMP #$00                        A:00 X:00 Y:99 P:27 SP:FE
CD1D  D0 0B     BNE $CD2A                       A:00 X:00 Y:99 P:27 SP:FE
CD1F  E0 00     CPX #$00                        A:00 X:00 Y:99 P:27 SP:FE
CD21  D0 07     BNE $CD2A                       A:00 X:00 Y:99 P:27 SP:FE
CD23  C0 99     CPY #$99                        A:00 X:00 Y:99 P:27 SP:FE
CD25  D0 03     BNE $CD2A                       A:00 X:00 Y:99 P:27 SP:FE
CD27  4C 2E CD  JMP $CD2E = EA                  A:00 X:00 Y:99 P:27 SP:FE
CD2E  EA        NOP                             A:00 X:00 Y:99 P:27 SP:FE
CD2F  A9 85     LDA #$85                        A:00 X:00 Y:99 P:27 SP:FE
CD31  A2 34     LDX #$34                        A:85 X:00 Y:99 P:A5 SP:FE
CD33  A0 99     LDY #$99                        A:85 X:34 Y:99 P:25 SP:FE
CD35  18        CEC                             A:85 X:34 Y:99 P:A5 SP:FE
CD36  24 01     BIT $01 = FF                    A:85 X:34 Y:99 P:A4 SP:FE
CD38  98        TYA                             A:85 X:34 Y:99 P:E4 SP:FE
CD39  F0 2E     BEQ $CD69                       A:99 X:34 Y:99 P:E4 SP:FE
CD3B  B0 2C     BCS $CD69                       A:99 X:34 Y:99 P:E4 SP:FE
CD3D  50 2A     BVC $CD69                       A:99 X:34 Y:99 P:E4 SP:FE
CD3F  10 28     BPL $CD69                       A:99 X:34 Y:99 P:E4 SP:FE
CD41  C9 99     CMP #$99                        A:99 X:34 Y:99 P:E4 SP:FE
CD43  D0 24     BNE $CD69                       A:99 X:34 Y:99 P:67 SP:FE
CD45  E0 34     CPX #$34                        A:99 X:34 Y:99 P:67 SP:FE
CD47  D0 20     BNE $CD69                       A:99 X:34 Y:99 P:67 SP:FE
CD49  C0 99     CPY #$99                        A:99 X:34 Y:99 P:67 SP:FE
CD4B  D0 1C     BNE $CD69                       A:99 X:34 Y:99 P:67 SP:FE
CD4D  A0 00     LDY #$00                        A:99 X:34 Y:99 P:67 SP:FE
CD4F  38        SEC                             A:99 X:34 Y:00 P:67 SP:FE
CD50  B8        CLV                             A:99 X:34 Y:00 P:67 SP:FE
CD51  98        TYA                             A:99 X:34 Y:00 P:27 SP:FE
CD52  D0 15     BNE $CD69                       A:00 X:34 Y:00 P:27 SP:FE
CD54  90 13     BCC $CD69                       A:00 X:34 Y:00 P:27 SP:FE
CD56  70 11     BVS $CD69                       A:00 X:34 Y:00 P:27 SP:FE
CD58  30 0F     BMI $CD69                       A:00 X:34 Y:00 P:27 SP:FE
CD5A  C9 00     CMP #$00                        A:00 X:34 Y:00 P:27 SP:FE
CD5C  D0 0B     BNE $CD69                       A:00 X:34 Y:00 P:27 SP:FE
CD5E  E0 34     CPX #$34                        A:00 X:34 Y:00 P:27 SP:FE
CD60  D0 07     BNE $CD69                       A:00 X:34 Y:00 P:27 SP:FE
CD62  C0 00     CPY #$00                        A:00 X:34 Y:00 P:27 SP:FE
CD64  D0 03     BNE $CD69                       A:00 X:34 Y:00 P:27 SP:FE
CD66  4C 6D CD  JMP $CD6D = EA                  A:00 X:34 Y:00 P:27 SP:FE
CD6D  EA        NOP                             A:00 X:34 Y:00 P:27 SP:FE
CD6E  A9 85     LDA #$85                        A:00 X:34 Y:00 P:27 SP:FE
CD70  A2 34     LDX #$34                        A:85 X:34 Y:00 P:A5 SP:FE
CD72  A0 99     LDY #$99                        A:85 X:34 Y:00 P:25 SP:FE
CD74  18        CEC                             A:85 X:34 Y:99 P:A5 SP:FE
CD75  24 01     BIT $01 = FF                    A:85 X:34 Y:99 P:A4 SP:FE
CD77  8A        TXA                             A:85 X:34 Y:99 P:E4 SP:FE
CD78  F0 2E     BEQ $CDA8                       A:34 X:34 Y:99 P:64 SP:FE
CD7A  B0 2C     BCS $CDA8                       A:34 X:34 Y:99 P:64 SP:FE
CD7C  50 2A     BVC $CDA8                       A:34 X:34 Y:99 P:64 SP:FE
CD7E  30 28     BMI $CDA8                       A:34 X:34 Y:99 P:64 SP:FE
CD80  C9 34     CMP #$34                        A:34 X:34 Y:99 P:64 SP:FE
CD82  D0 24     BNE $CDA8                       A:34 X:34 Y:99 P:67 SP:FE
CD84  E0 34     CPX #$34                        A:34 X:34 Y:99 P:67 SP:FE
CD86  D0 20     BNE $CDA8                       A:34 X:34 Y:99 P:67 SP:FE
CD88  C0 99     CPY #$99                        A:34 X:34 Y:99 P:67 SP:FE
CD8A  D0 1C     BNE $CDA8                       A:34 X:34 Y:99 P:67 SP:FE
CD8C  A2 00     LDX #$00                        A:34 X:34 Y:99 P:67 SP:FE
CD8E  38        SEC                             A:34 X:00 Y:99 P:67 SP:FE
CD8F  B8        CLV                             A:34 X:00 Y:99 P:67 SP:FE
CD90  8A        TXA                             A:34 X:00 Y:99 P:27 SP:FE
CD91  D0 15     BNE $CDA8                       A:00 X:00 Y:99 P:27 SP:FE
CD93  90 13     BCC $CDA8                       A:00 X:00 Y:99 P:27 SP:FE
CD95  70 11     BVS $CDA8                       A:00 X:00 Y:99 P:27 SP:FE
CD97  30 0F     BMI $CDA8                       A:00 X:00 Y:99 P:27 SP:FE
CD99  C9 00     CMP #$00                        A:00 X:00 Y:99 P:27 SP:FE
CD9B  D0 0B     BNE $CDA8                       A:00 X:00 Y:99 P:27 SP:FE
CD9D  E0 00     CPX #$00                        A:00 X:00 Y:99 P:27 SP:FE
CD9F  D0 07     BNE $CDA8                       A:00 X:00 Y:99 P:27 SP:FE
CDA1  C0 99     CPY #$99                        A:00 X:00 Y:99 P:27 SP:FE
CDA3  D0 03     BNE $CDA8                       A:00 X:00 Y:99 P:27 SP:FE
CDA5  4C AC CD  JMP $CDAC = EA                  A:00 X:00 Y:99 P:27 SP:FE
CDAC  EA        NOP                             A:00 X:00 Y:99 P:27 SP:FE
CDAD  BA        TSX                             A:00 X:00 Y:99 P:27 SP:FE
CDAE  8E FF 07  STX $07FF = 00                  A:00 X:FE Y:99 P:A5 SP:FE
CDB1  A0 33     LDY #$33                        A:00 X:FE Y:99 P:A5 SP:FE
CDB3  A2 69     LDX #$69                        A:00 X:FE Y:33 P:25 SP:FE
CDB5  A9 84     LDA #$84                        A:00 X:69 Y:33 P:25 SP:FE
CDB7  18        CEC                             A:84 X:69 Y:33 P:A5 SP:FE
CDB8  24 01     BIT $01 = FF                    A:84 X:69 Y:33 P:A4 SP:FE
CDBA  9A        TXS                             A:84 X:69 Y:33 P:E4 SP:FE
CDBB  F0 32     BEQ $CDEF                       A:84 X:69 Y:33 P:E4 SP:69
CDBD  10 30     BPL $CDEF                       A:84 X:69 Y:33 P:E4 SP:69
CDBF  B0 2E     BCS $CDEF                       A:84 X:69 Y:33 P:E4 SP:69
CDC1  50 2C     BVC $CDEF                       A:84 X:69 Y:33 P:E4 SP:69
CDC3  C9 84     CMP #$84                        A:84 X:69 Y:33 P:E4 SP:69
CDC5  D0 28     BNE $CDEF                       A:84 X:69 Y:33 P:67 SP:69
CDC7  E0 69     CPX #$69                        A:84 X:69 Y:33 P:67 SP:69
CDC9  D0 24     BNE $CDEF                       A:84 X:69 Y:33 P:67 SP:69
CDCB  C0 33     CPY #$33                        A:84 X:69 Y:33 P:67 SP:69
CDCD  D0 20     BNE $CDEF                       A:84 X:69 Y:33 P:67 SP:69
CDCF  A0 01     LDY #$01                        A:84 X:69 Y:33 P:67 SP:69
CDD1  A9 04     LDA #$04                        A:84 X:69 Y:01 P:65 SP:69
CDD3  38        SEC                             A:04 X:69 Y:01 P:65 SP:69
CDD4  B8        CLV                             A:04 X:69 Y:01 P:65 SP:69
CDD5  A2 00     LDX #$00                        A:04 X:69 Y:01 P:25 SP:69
CDD7  BA        TSX                             A:04 X:00 Y:01 P:27 SP:69
CDD8  F0 15     BEQ $CDEF                       A:04 X:69 Y:01 P:25 SP:69
CDDA  30 13     BMI $CDEF                       A:04 X:69 Y:01 P:25 SP:69
CDDC  90 11     BCC $CDEF                       A:04 X:69 Y:01 P:25 SP:69
CDDE  70 0F     BVS $CDEF                       A:04 X:69 Y:01 P:25 SP:69
CDE0  E0 69     CPX #$69                        A:04 X:69 Y:01 P:25 SP:69
CDE2  D0 0B     BNE $CDEF                       A:04 X:69 Y:01 P:27 SP:69
CDE4  C9 04     CMP #$04                        A:04 X:69 Y:01 P:27 SP:69
CDE6  D0 07     BNE $CDEF                       A:04 X:69 Y:01 P:27 SP:69
CDE8  C0 01     CPY #$01                        A:04 X:69 Y:01 P:27 SP:69
CDEA  D0 03     BNE $CDEF                       A:04 X:69 Y:01 P:27 SP:69
CDEC  4C F3 CD  JMP $CDF3 = AE                  A:04 X:69 Y:01 P:27 SP:69
CDF3  AE FF 07  LDX $07FF = FE                  A:04 X:69 Y:01 P:27 SP:69
CDF6  9A        TXS                             A:04 X:FE Y:01 P:A5 SP:69
CDF7  60        RTS                             A:04 X:FE Y:01 P:A5 SP:FE
C609  20 F8 CD  JSR $CDF8 = A9                  A:04 X:FE Y:01 P:A5 SP:00
CDF8  A9 FF     LDA #$FF                        A:04 X:FE Y:01 P:A5 SP:FE
CDFA  85 01     STA $01 = FF                    A:FF X:FE Y:01 P:A5 SP:FE
CDFC  BA        TSX                             A:FF X:FE Y:01 P:A5 SP:FE
CDFD  8E FF 07  STX $07FF = FE                  A:FF X:FE Y:01 P:A5 SP:FE
CE00  EA        NOP                             A:FF X:FE Y:01 P:A5 SP:FE
CE01  A2 80     LDX #$80                        A:FF X:FE Y:01 P:A5 SP:FE
CE03  9A        TXS                             A:FF X:80 Y:01 P:A5 SP:FE
CE04  A9 33     LDA #$33                        A:FF X:80 Y:01 P:A5 SP:80
CE06  48        PHA                             A:33 X:80 Y:01 P:25 SP:80
CE07  A9 69     LDA #$69                        A:33 X:80 Y:01 P:25 SP:7F
CE09  48        PHA                             A:69 X:80 Y:01 P:25 SP:7F
CE0A  BA        TSX                             A:69 X:80 Y:01 P:25 SP:7E
CE0B  E0 7E     CPX #$7E                        A:69 X:7E Y:01 P:25 SP:7E
CE0D  D0 20     BNE $CE2F                       A:69 X:7E Y:01 P:27 SP:7E
CE0F  68        PLA                             A:69 X:7E Y:01 P:27 SP:7E
CE10  C9 69     CMP #$69                        A:69 X:7E Y:01 P:25 SP:7F
CE12  D0 1B     BNE $CE2F                       A:69 X:7E Y:01 P:27 SP:7F
CE14  68        PLA                             A:69 X:7E Y:01 P:27 SP:7F
CE15  C9 33     CMP #$33                        A:33 X:7E Y:01 P:25 SP:80
CE17  D0 16     BNE $CE2F                       A:33 X:7E Y:01 P:27 SP:80
CE19  BA        TSX                             A:33 X:7E Y:01 P:27 SP:80
CE1A  E0 80     CPX #$80                        A:33 X:80 Y:01 P:A5 SP:80
CE1C  D0 11     BNE $CE2F                       A:33 X:80 Y:01 P:27 SP:80
CE1E  AD 80 01  LDA $0180 = 33                  A:33 X:80 Y:01 P:27 SP:80
CE21  C9 33     CMP #$33                        A:33 X:80 Y:01 P:25 SP:80
CE23  D0 0A     BNE $CE2F                       A:33 X:80 Y:01 P:27 SP:80
CE25  AD 7F 01  LDA $017F = 69                  A:33 X:80 Y:01 P:27 SP:80
CE28  C9 69     CMP #$69                        A:69 X:80 Y:01 P:25 SP:80
CE2A  D0 03     BNE $CE2F                       A:69 X:80 Y:01 P:27 SP:80
CE2C  4C 33 CE  JMP $CE33 = EA                  A:69 X:80 Y:01 P:27 SP:80
CE33  EA        NOP                             A:69 X:80 Y:01 P:27 SP:80
CE34  A2 80     LDX #$80                        A:69 X:80 Y:01 P:27 SP:80
CE36  9A        TXS                             A:69 X:80 Y:01 P:A5 SP:80
CE37  20 3D CE  JSR $CE3D = BA                  A:69 X:80 Y:01 P:A5 SP:80
CE3D  BA        TSX                             A:69 X:80 Y:01 P:A5 SP:7E
CE3E  E0 7E     CPX #$7E                        A:69 X:7E Y:01 P:25 SP:7E
CE40  D0 19     BNE $CE5B                       A:69 X:7E Y:01 P:27 SP:7E
CE42  68        PLA                             A:69 X:7E Y:01 P:27 SP:7E
CE43  68        PLA                             A:39 X:7E Y:01 P:25 SP:7F
CE44  BA        TSX                             A:CE X:7E Y:01 P:A5 SP:80
CE45  E0 80     CPX #$80                        A:CE X:80 Y:01 P:A5 SP:80
CE47  D0 12     BNE $CE5B                       A:CE X:80 Y:01 P:27 SP:80
CE49  A9 00     LDA #$00                        A:CE X:80 Y:01 P:27 SP:80
CE4B  20 4E CE  JSR $CE4E = 68                  A:00 X:80 Y:01 P:27 SP:80
CE4E  68        PLA                             A:00 X:80 Y:01 P:27 SP:7E
CE4F  C9 4D     CMP #$4D                        A:4D X:80 Y:01 P:25 SP:7F
CE51  D0 08     BNE $CE5B                       A:4D X:80 Y:01 P:27 SP:7F
CE53  68        PLA                             A:4D X:80 Y:01 P:27 SP:7F
CE54  C9 CE     CMP #$CE                        A:CE X:80 Y:01 P:A5 SP:80
CE56  D0 03     BNE $CE5B                       A:CE X:80 Y:01 P:27 SP:80
CE58  4C 5F CE  JMP $CE5F = EA                  A:CE X:80 Y:01 P:27 SP:80
CE5F  EA        NOP                             A:CE X:80 Y:01 P:27 SP:80
CE60  A9 CE     LDA #$CE                        A:CE X:80 Y:01 P:27 SP:80
CE62  48        PHA                             A:CE X:80 Y:01 P:A5 SP:80
CE63  A9 66     LDA #$66                        A:CE X:80 Y:01 P:A5 SP:7F
CE65  48        PHA                             A:66 X:80 Y:01 P:25 SP:7F
CE66  60        RTS                             A:66 X:80 Y:01 P:25 SP:7E
CE67  A2 77     LDX #$77                        A:66 X:80 Y:01 P:25 SP:80
CE69  A0 69     LDY #$69                        A:66 X:77 Y:01 P:25 SP:80
CE6B  18        CEC                             A:66 X:77 Y:69 P:25 SP:80
CE6C  24 01     BIT $01 = FF                    A:66 X:77 Y:69 P:24 SP:80
CE6E  A9 83     LDA #$83                        A:66 X:77 Y:69 P:E4 SP:80
CE70  20 66 CE  JSR $CE66 = 60                  A:83 X:77 Y:69 P:E4 SP:80
CE66  60        RTS                             A:83 X:77 Y:69 P:E4 SP:7E
CE73  F0 24     BEQ $CE99                       A:83 X:77 Y:69 P:E4 SP:80
CE75  10 22     BPL $CE99                       A:83 X:77 Y:69 P:E4 SP:80
CE77  B0 20     BCS $CE99                       A:83 X:77 Y:69 P:E4 SP:80
CE79  50 1E     BVC $CE99                       A:83 X:77 Y:69 P:E4 SP:80
CE7B  C9 83     CMP #$83                        A:83 X:77 Y:69 P:E4 SP:80
CE7D  D0 1A     BNE $CE99                       A:83 X:77 Y:69 P:67 SP:80
CE7F  C0 69     CPY #$69                        A:83 X:77 Y:69 P:67 SP:80
CE81  D0 16     BNE $CE99                       A:83 X:77 Y:69 P:67 SP:80
CE83  E0 77     CPX #$77                        A:83 X:77 Y:69 P:67 SP:80
CE85  D0 12     BNE $CE99                       A:83 X:77 Y:69 P:67 SP:80
CE87  38        SEC                             A:83 X:77 Y:69 P:67 SP:80
CE88  B8        CLV                             A:83 X:77 Y:69 P:67 SP:80
CE89  A9 00     LDA #$00                        A:83 X:77 Y:69 P:27 SP:80
CE8B  20 66 CE  JSR $CE66 = 60                  A:00 X:77 Y:69 P:27 SP:80
CE66  60        RTS                             A:00 X:77 Y:69 P:27 SP:7E
CE8E  D0 09     BNE $CE99                       A:00 X:77 Y:69 P:27 SP:80
CE90  30 07     BMI $CE99                       A:00 X:77 Y:69 P:27 SP:80
CE92  90 05     BCC $CE99                       A:00 X:77 Y:69 P:27 SP:80
CE94  70 03     BVS $CE99                       A:00 X:77 Y:69 P:27 SP:80
CE96  4C 9D CE  JMP $CE9D = EA                  A:00 X:77 Y:69 P:27 SP:80
CE9D  EA        NOP                             A:00 X:77 Y:69 P:27 SP:80
CE9E  A9 CE     LDA #$CE                        A:00 X:77 Y:69 P:27 SP:80
CEA0  48        PHA                             A:CE X:77 Y:69 P:A5 SP:80
CEA1  A9 AE     LDA #$AE                        A:CE X:77 Y:69 P:A5 SP:7F
CEA3  48        PHA                             A:AE X:77 Y:69 P:A5 SP:7F
CEA4  A9 65     LDA #$65                        A:AE X:77 Y:69 P:A5 SP:7E
CEA6  48        PHA                             A:65 X:77 Y:69 P:25 SP:7E
CEA7  A9 55     LDA #$55                        A:65 X:77 Y:69 P:25 SP:7D
CEA9  A0 88     LDY #$88                        A:55 X:77 Y:69 P:25 SP:7D
CEAB  A2 99     LDX #$99                        A:55 X:77 Y:88 P:A5 SP:7D
CEAD  40        RTI                             A:55 X:99 Y:88 P:A5 SP:7D
CEAE  30 35     BMI $CEE5                       A:55 X:99 Y:88 P:65 SP:80
CEB0  50 33     BVC $CEE5                       A:55 X:99 Y:88 P:65 SP:80
CEB2  F0 31     BEQ $CEE5                       A:55 X:99 Y:88 P:65 SP:80
CEB4  90 2F     BCC $CEE5                       A:55 X:99 Y:88 P:65 SP:80
CEB6  C9 55     CMP #$55                        A:55 X:99 Y:88 P:65 SP:80
CEB8  D0 2B     BNE $CEE5                       A:55 X:99 Y:88 P:67 SP:80
CEBA  C0 88     CPY #$88                        A:55 X:99 Y:88 P:67 SP:80
CEBC  D0 27     BNE $CEE5                       A:55 X:99 Y:88 P:67 SP:80
CEBE  E0 99     CPX #$99                        A:55 X:99 Y:88 P:67 SP:80
CEC0  D0 23     BNE $CEE5                       A:55 X:99 Y:88 P:67 SP:80
CEC2  A9 CE     LDA #$CE                        A:55 X:99 Y:88 P:67 SP:80
CEC4  48        PHA                             A:CE X:99 Y:88 P:E5 SP:80
CEC5  A9 CE     LDA #$CE                        A:CE X:99 Y:88 P:E5 SP:7F
CEC7  48        PHA                             A:CE X:99 Y:88 P:E5 SP:7F
CEC8  A9 87     LDA #$87                        A:CE X:99 Y:88 P:E5 SP:7E
CECA  48        PHA                             A:87 X:99 Y:88 P:E5 SP:7E
CECB  A9 55     LDA #$55                        A:87 X:99 Y:88 P:E5 SP:7D
CECD  40        RTI                             A:55 X:99 Y:88 P:65 SP:7D
CECE  10 15     BPL $CEE5                       A:55 X:99 Y:88 P:A7 SP:80
CED0  70 13     BVS $CEE5                       A:55 X:99 Y:88 P:A7 SP:80
CED2  D0 11     BNE $CEE5                       A:55 X:99 Y:88 P:A7 SP:80
CED4  90 0F     BCC $CEE5                       A:55 X:99 Y:88 P:A7 SP:80
CED6  C9 55     CMP #$55                        A:55 X:99 Y:88 P:A7 SP:80
CED8  D0 0B     BNE $CEE5                       A:55 X:99 Y:88 P:27 SP:80
CEDA  C0 88     CPY #$88                        A:55 X:99 Y:88 P:27 SP:80
CEDC  D0 07     BNE $CEE5                       A:55 X:99 Y:88 P:27 SP:80
CEDE  E0 99     CPX #$99                        A:55 X:99 Y:88 P:27 SP:80
CEE0  D0 03     BNE $CEE5                       A:55 X:99 Y:88 P:27 SP:80
CEE2  4C E9 CE  JMP $CEE9 = AE                  A:55 X:99 Y:88 P:27 SP:80
CEE9  AE FF 07  LDX $07FF = FE                  A:55 X:99 Y:88 P:27 SP:80
CEEC  9A        TXS                             A:55 X:FE Y:88 P:A5 SP:80
CEED  60        RTS                             A:55 X:FE Y:88 P:A5 SP:FE
C60C  20 EE CE  JSR $CEEE = A2                  A:55 X:FE Y:88 P:A5 SP:00
CEEE  A2 55     LDX #$55                        A:55 X:FE Y:88 P:A5 SP:FE
CEF0  A0 69     LDY #$69                        A:55 X:55 Y:88 P:25 SP:FE
CEF2  A9 FF     LDA #$FF                        A:55 X:55 Y:69 P:25 SP:FE
CEF4  85 01     STA $01 = FF                    A:FF X:55 Y:69 P:A5 SP:FE
CEF6  EA        NOP                             A:FF X:55 Y:69 P:A5 SP:FE
CEF7  24 01     BIT $01 = FF                    A:FF X:55 Y:69 P:A5 SP:FE
CEF9  38        SEC                             A:FF X:55 Y:69 P:E5 SP:FE
CEFA  A9 01     LDA #$01                        A:FF X:55 Y:69 P:E5 SP:FE
CEFC  4A        LSR A                           A:01 X:55 Y:69 P:65 SP:FE
CEFD  90 1D     BCC $CF1C                       A:00 X:55 Y:69 P:67 SP:FE
CEFF  D0 1B     BNE $CF1C                       A:00 X:55 Y:69 P:67 SP:FE
CF01  30 19     BMI $CF1C                       A:00 X:55 Y:69 P:67 SP:FE
CF03  50 17     BVC $CF1C                       A:00 X:55 Y:69 P:67 SP:FE
CF05  C9 00     CMP #$00                        A:00 X:55 Y:69 P:67 SP:FE
CF07  D0 13     BNE $CF1C                       A:00 X:55 Y:69 P:67 SP:FE
CF09  B8        CLV                             A:00 X:55 Y:69 P:67 SP:FE
CF0A  A9 AA     LDA #$AA                        A:00 X:55 Y:69 P:27 SP:FE
CF0C  4A        LSR A                           A:AA X:55 Y:69 P:A5 SP:FE
CF0D  B0 0D     BCS $CF1C                       A:55 X:55 Y:69 P:24 SP:FE
CF0F  F0 0B     BEQ $CF1C                       A:55 X:55 Y:69 P:24 SP:FE
CF11  30 09     BMI $CF1C                       A:55 X:55 Y:69 P:24 SP:FE
CF13  70 07     BVS $CF1C                       A:55 X:55 Y:69 P:24 SP:FE
CF15  C9 55     CMP #$55                        A:55 X:55 Y:69 P:24 SP:FE
CF17  D0 03     BNE $CF1C                       A:55 X:55 Y:69 P:27 SP:FE
CF19  4C 20 CF  JMP $CF20 = EA                  A:55 X:55 Y:69 P:27 SP:FE
CF20  EA        NOP                             A:55 X:55 Y:69 P:27 SP:FE
CF21  24 01     BIT $01 = FF                    A:55 X:55 Y:69 P:27 SP:FE
CF23  38        SEC                             A:55 X:55 Y:69 P:E5 SP:FE
CF24  A9 80     LDA #$80                        A:55 X:55 Y:69 P:E5 SP:FE
CF26  0A        ASL A                           A:80 X:55 Y:69 P:E5 SP:FE
CF27  90 1E     BCC $CF47                       A:00 X:55 Y:69 P:67 SP:FE
CF29  D0 1C     BNE $CF47                       A:00 X:55 Y:69 P:67 SP:FE
CF2B  30 1A     BMI $CF47                       A:00 X:55 Y:69 P:67 SP:FE
CF2D  50 18     BVC $CF47                       A:00 X:55 Y:69 P:67 SP:FE
CF2F  C9 00     CMP #$00                        A:00 X:55 Y:69 P:67 SP:FE
CF31  D0 14     BNE $CF47                       A:00 X:55 Y:69 P:67 SP:FE
CF33  B8        CLV                             A:00 X:55 Y:69 P:67 SP:FE
CF34  38        SEC                             A:00 X:55 Y:69 P:27 SP:FE
CF35  A9 55     LDA #$55                        A:00 X:55 Y:69 P:27 SP:FE
CF37  0A        ASL A                           A:55 X:55 Y:69 P:25 SP:FE
CF38  B0 0D     BCS $CF47                       A:AA X:55 Y:69 P:A4 SP:FE
CF3A  F0 0B     BEQ $CF47                       A:AA X:55 Y:69 P:A4 SP:FE
CF3C  10 09     BPL $CF47                       A:AA X:55 Y:69 P:A4 SP:FE
CF3E  70 07     BVS $CF47                       A:AA X:55 Y:69 P:A4 SP:FE
CF40  C9 AA     CMP #$AA                        A:AA X:55 Y:69 P:A4 SP:FE
CF42  D0 03     BNE $CF47                       A:AA X:55 Y:69 P:27 SP:FE
CF44  4C 4B CF  JMP $CF4B = EA                  A:AA X:55 Y:69 P:27 SP:FE
CF4B  EA        NOP                             A:AA X:55 Y:69 P:27 SP:FE
CF4C  24 01     BIT $01 = FF                    A:AA X:55 Y:69 P:27 SP:FE
CF4E  38        SEC                             A:AA X:55 Y:69 P:E5 SP:FE
CF4F  A9 01     LDA #$01                        A:AA X:55 Y:69 P:E5 SP:FE
CF51  6A        ROR A                           A:01 X:55 Y:69 P:65 SP:FE
CF52  90 1E     BCC $CF72                       A:80 X:55 Y:69 P:E5 SP:FE
CF54  F0 1C     BEQ $CF72                       A:80 X:55 Y:69 P:E5 SP:FE
CF56  10 1A     BPL $CF72                       A:80 X:55 Y:69 P:E5 SP:FE
CF58  50 18     BVC $CF72                       A:80 X:55 Y:69 P:E5 SP:FE
CF5A  C9 80     CMP #$80                        A:80 X:55 Y:69 P:E5 SP:FE
CF5C  D0 14     BNE $CF72                       A:80 X:55 Y:69 P:67 SP:FE
CF5E  B8        CLV                             A:80 X:55 Y:69 P:67 SP:FE
CF5F  18        CEC                             A:80 X:55 Y:69 P:27 SP:FE
CF60  A9 55     LDA #$55                        A:80 X:55 Y:69 P:26 SP:FE
CF62  6A        ROR A                           A:55 X:55 Y:69 P:24 SP:FE
CF63  90 0D     BCC $CF72                       A:2A X:55 Y:69 P:25 SP:FE
CF65  F0 0B     BEQ $CF72                       A:2A X:55 Y:69 P:25 SP:FE
CF67  30 09     BMI $CF72                       A:2A X:55 Y:69 P:25 SP:FE
CF69  70 07     BVS $CF72                       A:2A X:55 Y:69 P:25 SP:FE
CF6B  C9 2A     CMP #$2A                        A:2A X:55 Y:69 P:25 SP:FE
CF6D  D0 03     BNE $CF72                       A:2A X:55 Y:69 P:27 SP:FE
CF6F  4C 76 CF  JMP $CF76 = EA                  A:2A X:55 Y:69 P:27 SP:FE
CF76  EA        NOP                             A:2A X:55 Y:69 P:27 SP:FE
CF77  24 01     BIT $01 = FF                    A:2A X:55 Y:69 P:27 SP:FE
CF79  38        SEC                             A:2A X:55 Y:69 P:E5 SP:FE
CF7A  A9 80     LDA #$80                        A:2A X:55 Y:69 P:E5 SP:FE
CF7C  2A        ROL A                           A:80 X:55 Y:69 P:E5 SP:FE
CF7D  90 1E     BCC $CF9D                       A:01 X:55 Y:69 P:65 SP:FE
CF7F  F0 1C     BEQ $CF9D                       A:01 X:55 Y:69 P:65 SP:FE
CF81  30 1A     BMI $CF9D                       A:01 X:55 Y:69 P:65 SP:FE
CF83  50 18     BVC $CF9D                       A:01 X:55 Y:69 P:65 SP:FE
CF85  C9 01     CMP #$01                        A:01 X:55 Y:69 P:65 SP:FE
CF87  D0 14     BNE $CF9D                       A:01 X:55 Y:69 P:67 SP:FE
CF89  B8        CLV                             A:01 X:55 Y:69 P:67 SP:FE
CF8A  18        CEC                             A:01 X:55 Y:69 P:27 SP:FE
CF8B  A9 55     LDA #$55                        A:01 X:55 Y:69 P:26 SP:FE
CF8D  2A        ROL A                           A:55 X:55 Y:69 P:24 SP:FE
CF8E  B0 0D     BCS $CF9D                       A:AA X:55 Y:69 P:A4 SP:FE
CF90  F0 0B     BEQ $CF9D                       A:AA X:55 Y:69 P:A4 SP:FE
CF92  10 09     BPL $CF9D                       A:AA X:55 Y:69 P:A4 SP:FE
CF94  70 07     BVS $CF9D                       A:AA X:55 Y:69 P:A4 SP:FE
CF96  C9 AA     CMP #$AA                        A:AA X:55 Y:69 P:A4 SP:FE
CF98  D0 03     BNE $CF9D                       A:AA X:55 Y:69 P:27 SP:FE
CF9A  4C A1 CF  JMP $CFA1 = 60                  A:AA X:55 Y:69 P:27 SP:FE
CFA1  60        RTS                             A:AA X:55 Y:69 P:27 SP:FE
C60F  20 A2 CF  JSR $CFA2 = A5                  A:AA X:55 Y:69 P:27 SP:00
CFA2  A5 00     LDA $00 = 00                    A:AA X:55 Y:69 P:27 SP:FE
CFA4  8D FF 07  STA $07FF = FE                  A:00 X:55 Y:69 P:27 SP:FE
CFA7  A9 00     LDA #$00                        A:00 X:55 Y:69 P:27 SP:FE
CFA9  85 80     STA $80 = 00                    A:00 X:55 Y:69 P:27 SP:FE
CFAB  A9 02     LDA #$02                        A:00 X:55 Y:69 P:27 SP:FE
CFAD  85 81     STA $81 = 00                    A:02 X:55 Y:69 P:25 SP:FE
CFAF  A9 FF     LDA #$FF                        A:02 X:55 Y:69 P:25 SP:FE
CFB1  85 01     STA $01 = FF                    A:FF X:55 Y:69 P:A5 SP:FE
CFB3  A9 00     LDA #$00                        A:FF X:55 Y:69 P:A5 SP:FE
CFB5  85 82     STA $82 = 00                    A:00 X:55 Y:69 P:27 SP:FE
CFB7  A9 03     LDA #$03                        A:00 X:55 Y:69 P:27 SP:FE
CFB9  85 83     STA $83 = 00                    A:03 X:55 Y:69 P:25 SP:FE
CFBB  85 84     STA $84 = 00                    A:03 X:55 Y:69 P:25 SP:FE
CFBD  A9 00     LDA #$00                        A:03 X:55 Y:69 P:25 SP:FE
CFBF  85 FF     STA $FF = 00                    A:00 X:55 Y:69 P:27 SP:FE
CFC1  A9 04     LDA #$04                        A:00 X:55 Y:69 P:27 SP:FE
CFC3  85 00     STA $00 = 00                    A:04 X:55 Y:69 P:25 SP:FE
CFC5  A9 5A     LDA #$5A                        A:04 X:55 Y:69 P:25 SP:FE
CFC7  8D 00 02  STA $0200 = 00                  A:5A X:55 Y:69 P:25 SP:FE
CFCA  A9 5B     LDA #$5B                        A:5A X:55 Y:69 P:25 SP:FE
CFCC  8D 00 03  STA $0300 = 00                  A:5B X:55 Y:69 P:25 SP:FE
CFCF  A9 5C     LDA #$5C                        A:5B X:55 Y:69 P:25 SP:FE
CFD1  8D 03 03  STA $0303 = 00                  A:5C X:55 Y:69 P:25 SP:FE
CFD4  A9 5D     LDA #$5D                        A:5C X:55 Y:69 P:25 SP:FE
CFD6  8D 00 04  STA $0400 = 00                  A:5D X:55 Y:69 P:25 SP:FE
CFD9  A2 00     LDX #$00                        A:5D X:55 Y:69 P:25 SP:FE
CFDB  A1 80     LDA ($80,X) @ 80 = 0200 = 5A    A:5D X:00 Y:69 P:27 SP:FE
CFDD  C9 5A     CMP #$5A                        A:5A X:00 Y:69 P:25 SP:FE
CFDF  D0 1F     BNE $D000                       A:5A X:00 Y:69 P:27 SP:FE
CFE1  E8        INX                             A:5A X:00 Y:69 P:27 SP:FE
CFE2  E8        INX                             A:5A X:01 Y:69 P:25 SP:FE
CFE3  A1 80     LDA ($80,X) @ 82 = 0300 = 5B    A:5A X:02 Y:69 P:25 SP:FE
CFE5  C9 5B     CMP #$5B                        A:5B X:02 Y:69 P:25 SP:FE
CFE7  D0 17     BNE $D000                       A:5B X:02 Y:69 P:27 SP:FE
CFE9  E8        INX                             A:5B X:02 Y:69 P:27 SP:FE
CFEA  A1 80     LDA ($80,X) @ 83 = 0303 = 5C    A:5B X:03 Y:69 P:25 SP:FE
CFEC  C9 5C     CMP #$5C                        A:5C X:03 Y:69 P:25 SP:FE
CFEE  D0 10     BNE $D000                       A:5C X:03 Y:69 P:27 SP:FE
CFF0  A2 00     LDX #$00                        A:5C X:03 Y:69 P:27 SP:FE
CFF2  A1 FF     LDA ($FF,X) @ FF = 0400 = 5D    A:5C X:00 Y:69 P:27 SP:FE
CFF4  C9 5D     CMP #$5D                        A:5D X:00 Y:69 P:25 SP:FE
CFF6  D0 08     BNE $D000                       A:5D X:00 Y:69 P:27 SP:FE
CFF8  A2 81     LDX #$81                        A:5D X:00 Y:69 P:27 SP:FE
CFFA  A1 FF     LDA ($FF,X) @ 80 = 0200 = 5A    A:5D X:81 Y:69 P:A5 SP:FE
CFFC  C9 5A     CMP #$5A                        A:5A X:81 Y:69 P:25 SP:FE
CFFE  F0 05     BEQ $D005                       A:5A X:81 Y:69 P:27 SP:FE
D005  A9 AA     LDA #$AA                        A:5A X:81 Y:69 P:27 SP:FE
D007  A2 00     LDX #$00                        A:AA X:81 Y:69 P:A5 SP:FE
D009  81 80     STA ($80,X) @ 80 = 0200 = 5A    A:AA X:00 Y:69 P:27 SP:FE
D00B  E8        INX                             A:AA X:00 Y:69 P:27 SP:FE
D00C  E8        INX                             A:AA X:01 Y:69 P:25 SP:FE
D00D  A9 AB     LDA #$AB                        A:AA X:02 Y:69 P:25 SP:FE
D00F  81 80     STA ($80,X) @ 82 = 0300 = 5B    A:AB X:02 Y:69 P:A5 SP:FE
D011  E8        INX                             A:AB X:02 Y:69 P:A5 SP:FE
D012  A9 AC     LDA #$AC                        A:AB X:03 Y:69 P:25 SP:FE
D014  81 80     STA ($80,X) @ 83 = 0303 = 5C    A:AC X:03 Y:69 P:A5 SP:FE
D016  A2 00     LDX #$00                        A:AC X:03 Y:69 P:A5 SP:FE
D018  A9 AD     LDA #$AD                        A:AC X:00 Y:69 P:27 SP:FE
D01A  81 FF     STA ($FF,X) @ FF = 0400 = 5D    A:AD X:00 Y:69 P:A5 SP:FE
D01C  AD 00 02  LDA $0200 = AA                  A:AD X:00 Y:69 P:A5 SP:FE
D01F  C9 AA     CMP #$AA                        A:AA X:00 Y:69 P:A5 SP:FE
D021  D0 15     BNE $D038                       A:AA X:00 Y:69 P:27 SP:FE
D023  AD 00 03  LDA $0300 = AB                  A:AA X:00 Y:69 P:27 SP:FE
D026  C9 AB     CMP #$AB                        A:AB X:00 Y:69 P:A5 SP:FE
D028  D0 0E     BNE $D038                       A:AB X:00 Y:69 P:27 SP:FE
D02A  AD 03 03  LDA $0303 = AC                  A:AB X:00 Y:69 P:27 SP:FE
D02D  C9 AC     CMP #$AC                        A:AC X:00 Y:69 P:A5 SP:FE
D02F  D0 07     BNE $D038                       A:AC X:00 Y:69 P:27 SP:FE
D031  AD 00 04  LDA $0400 = AD                  A:AC X:00 Y:69 P:27 SP:FE
D034  C9 AD     CMP #$AD                        A:AD X:00 Y:69 P:A5 SP:FE
D036  F0 05     BEQ $D03D                       A:AD X:00 Y:69 P:27 SP:FE
D03D  AD FF 07  LDA $07FF = 00                  A:AD X:00 Y:69 P:27 SP:FE
D040  85 00     STA $00 = 04                    A:00 X:00 Y:69 P:27 SP:FE
D042  A9 00     LDA #$00                        A:00 X:00 Y:69 P:27 SP:FE
D044  8D 00 03  STA $0300 = AB                  A:00 X:00 Y:69 P:27 SP:FE
D047  A9 AA     LDA #$AA                        A:00 X:00 Y:69 P:27 SP:FE
D049  8D 00 02  STA $0200 = AA                  A:AA X:00 Y:69 P:A5 SP:FE
D04C  A2 00     LDX #$00                        A:AA X:00 Y:69 P:A5 SP:FE
D04E  A0 5A     LDY #$5A                        A:AA X:00 Y:69 P:27 SP:FE
D050  20 B6 F7  JSR $F7B6 = 18                  A:AA X:00 Y:5A P:25 SP:FE
F7B6  18        CEC                             A:AA X:00 Y:5A P:25 SP:FC
F7B7  A9 FF     LDA #$FF                        A:AA X:00 Y:5A P:24 SP:FC
F7B9  85 01     STA $01 = FF                    A:FF X:00 Y:5A P:A4 SP:FC
F7BB  24 01     BIT $01 = FF                    A:FF X:00 Y:5A P:A4 SP:FC
F7BD  A9 55     LDA #$55                        A:FF X:00 Y:5A P:E4 SP:FC
F7BF  60        RTS                             A:55 X:00 Y:5A P:64 SP:FC
D053  01 80     ORA ($80,X) @ 80 = 0200 = AA    A:55 X:00 Y:5A P:64 SP:FE
D055  20 C0 F7  JSR $F7C0 = B0                  A:FF X:00 Y:5A P:E4 SP:FE
F7C0  B0 09     BCS $F7CB                       A:FF X:00 Y:5A P:E4 SP:FC
F7C2  10 07     BPL $F7CB                       A:FF X:00 Y:5A P:E4 SP:FC
F7C4  C9 FF     CMP #$FF                        A:FF X:00 Y:5A P:E4 SP:FC
F7C6  D0 03     BNE $F7CB                       A:FF X:00 Y:5A P:67 SP:FC
F7C8  50 01     BVC $F7CB                       A:FF X:00 Y:5A P:67 SP:FC
F7CA  60        RTS                             A:FF X:00 Y:5A P:67 SP:FC
D058  C8        INY                             A:FF X:00 Y:5A P:67 SP:FE
D059  20 CE F7  JSR $F7CE = 38                  A:FF X:00 Y:5B P:65 SP:FE
F7CE  38        SEC                             A:FF X:00 Y:5B P:65 SP:FC
F7CF  B8        CLV                             A:FF X:00 Y:5B P:65 SP:FC
F7D0  A9 00     LDA #$00                        A:FF X:00 Y:5B P:25 SP:FC
F7D2  60        RTS                             A:00 X:00 Y:5B P:27 SP:FC
D05C  01 82     ORA ($82,X) @ 82 = 0300 = 00    A:00 X:00 Y:5B P:27 SP:FE
D05E  20 D3 F7  JSR $F7D3 = D0                  A:00 X:00 Y:5B P:27 SP:FE
F7D3  D0 07     BNE $F7DC                       A:00 X:00 Y:5B P:27 SP:FC
F7D5  70 05     BVS $F7DC                       A:00 X:00 Y:5B P:27 SP:FC
F7D7  90 03     BCC $F7DC                       A:00 X:00 Y:5B P:27 SP:FC
F7D9  30 01     BMI $F7DC                       A:00 X:00 Y:5B P:27 SP:FC
F7DB  60        RTS                             A:00 X:00 Y:5B P:27 SP:FC
D061  C8        INY                             A:00 X:00 Y:5B P:27 SP:FE
D062  20 DF F7  JSR $F7DF = 18                  A:00 X:00 Y:5C P:25 SP:FE
F7DF  18        CEC                             A:00 X:00 Y:5C P:25 SP:FC
F7E0  24 01     BIT $01 = FF                    A:00 X:00 Y:5C P:24 SP:FC
F7E2  A9 55     LDA #$55                        A:00 X:00 Y:5C P:E6 SP:FC
F7E4  60        RTS                             A:55 X:00 Y:5C P:64 SP:FC
D065  21 80     AND ($80,X) @ 80 = 0200 = AA    A:55 X:00 Y:5C P:64 SP:FE
D067  20 E5 F7  JSR $F7E5 = D0                  A:00 X:00 Y:5C P:66 SP:FE
F7E5  D0 07     BNE $F7EE                       A:00 X:00 Y:5C P:66 SP:FC
F7E7  50 05     BVC $F7EE                       A:00 X:00 Y:5C P:66 SP:FC
F7E9  B0 03     BCS $F7EE                       A:00 X:00 Y:5C P:66 SP:FC
F7EB  30 01     BMI $F7EE                       A:00 X:00 Y:5C P:66 SP:FC
F7ED  60        RTS                             A:00 X:00 Y:5C P:66 SP:FC
D06A  C8        INY                             A:00 X:00 Y:5C P:66 SP:FE
D06B  A9 EF     LDA #$EF                        A:00 X:00 Y:5D P:64 SP:FE
D06D  8D 00 03  STA $0300 = 00                  A:EF X:00 Y:5D P:E4 SP:FE
D070  20 F1 F7  JSR $F7F1 = 38                  A:EF X:00 Y:5D P:E4 SP:FE
F7F1  38        SEC                             A:EF X:00 Y:5D P:E4 SP:FC
F7F2  B8        CLV                             A:EF X:00 Y:5D P:E5 SP:FC
F7F3  A9 F8     LDA #$F8                        A:EF X:00 Y:5D P:A5 SP:FC
F7F5  60        RTS                             A:F8 X:00 Y:5D P:A5 SP:FC
D073  21 82     AND ($82,X) @ 82 = 0300 = EF    A:F8 X:00 Y:5D P:A5 SP:FE
D075  20 F6 F7  JSR $F7F6 = 90                  A:E8 X:00 Y:5D P:A5 SP:FE
F7F6  90 09     BCC $F801                       A:E8 X:00 Y:5D P:A5 SP:FC
F7F8  10 07     BPL $F801                       A:E8 X:00 Y:5D P:A5 SP:FC
F7FA  C9 E8     CMP #$E8                        A:E8 X:00 Y:5D P:A5 SP:FC
F7FC  D0 03     BNE $F801                       A:E8 X:00 Y:5D P:27 SP:FC
F7FE  70 01     BVS $F801                       A:E8 X:00 Y:5D P:27 SP:FC
F800  60        RTS                             A:E8 X:00 Y:5D P:27 SP:FC
D078  C8        INY                             A:E8 X:00 Y:5D P:27 SP:FE
D079  20 04 F8  JSR $F804 = 18                  A:E8 X:00 Y:5E P:25 SP:FE
F804  18        CEC                             A:E8 X:00 Y:5E P:25 SP:FC
F805  24 01     BIT $01 = FF                    A:E8 X:00 Y:5E P:24 SP:FC
F807  A9 5F     LDA #$5F                        A:E8 X:00 Y:5E P:E4 SP:FC
F809  60        RTS                             A:5F X:00 Y:5E P:64 SP:FC
D07C  41 80     EOR ($80,X) @ 80 = 0200 = AA    A:5F X:00 Y:5E P:64 SP:FE
D07E  20 0A F8  JSR $F80A = B0                  A:F5 X:00 Y:5E P:E4 SP:FE
F80A  B0 09     BCS $F815                       A:F5 X:00 Y:5E P:E4 SP:FC
F80C  10 07     BPL $F815                       A:F5 X:00 Y:5E P:E4 SP:FC
F80E  C9 F5     CMP #$F5                        A:F5 X:00 Y:5E P:E4 SP:FC
F810  D0 03     BNE $F815                       A:F5 X:00 Y:5E P:67 SP:FC
F812  50 01     BVC $F815                       A:F5 X:00 Y:5E P:67 SP:FC
F814  60        RTS                             A:F5 X:00 Y:5E P:67 SP:FC
D081  C8        INY                             A:F5 X:00 Y:5E P:67 SP:FE
D082  A9 70     LDA #$70                        A:F5 X:00 Y:5F P:65 SP:FE
D084  8D 00 03  STA $0300 = EF                  A:70 X:00 Y:5F P:65 SP:FE
D087  20 18 F8  JSR $F818 = 38                  A:70 X:00 Y:5F P:65 SP:FE
F818  38        SEC                             A:70 X:00 Y:5F P:65 SP:FC
F819  B8        CLV                             A:70 X:00 Y:5F P:65 SP:FC
F81A  A9 70     LDA #$70                        A:70 X:00 Y:5F P:25 SP:FC
F81C  60        RTS                             A:70 X:00 Y:5F P:25 SP:FC
D08A  41 82     EOR ($82,X) @ 82 = 0300 = 70    A:70 X:00 Y:5F P:25 SP:FE
D08C  20 1D F8  JSR $F81D = D0                  A:00 X:00 Y:5F P:27 SP:FE
F81D  D0 07     BNE $F826                       A:00 X:00 Y:5F P:27 SP:FC
F81F  70 05     BVS $F826                       A:00 X:00 Y:5F P:27 SP:FC
F821  90 03     BCC $F826                       A:00 X:00 Y:5F P:27 SP:FC
F823  30 01     BMI $F826                       A:00 X:00 Y:5F P:27 SP:FC
F825  60        RTS                             A:00 X:00 Y:5F P:27 SP:FC
D08F  C8        INY                             A:00 X:00 Y:5F P:27 SP:FE
D090  A9 69     LDA #$69                        A:00 X:00 Y:60 P:25 SP:FE
D092  8D 00 02  STA $0200 = AA                  A:69 X:00 Y:60 P:25 SP:FE
D095  20 29 F8  JSR $F829 = 18                  A:69 X:00 Y:60 P:25 SP:FE
F829  18        CEC                             A:69 X:00 Y:60 P:25 SP:FC
F82A  24 01     BIT $01 = FF                    A:69 X:00 Y:60 P:24 SP:FC
F82C  A9 00     LDA #$00                        A:69 X:00 Y:60 P:E4 SP:FC
F82E  60        RTS                             A:00 X:00 Y:60 P:66 SP:FC
D098  61 80     ADC ($80,X) @ 80 = 0200 = 69    A:00 X:00 Y:60 P:66 SP:FE
D09A  20 2F F8  JSR $F82F = 30                  A:69 X:00 Y:60 P:24 SP:FE
F82F  30 09     BMI $F83A                       A:69 X:00 Y:60 P:24 SP:FC
F831  B0 07     BCS $F83A                       A:69 X:00 Y:60 P:24 SP:FC
F833  C9 69     CMP #$69                        A:69 X:00 Y:60 P:24 SP:FC
F835  D0 03     BNE $F83A                       A:69 X:00 Y:60 P:27 SP:FC
F837  70 01     BVS $F83A                       A:69 X:00 Y:60 P:27 SP:FC
F839  60        RTS                             A:69 X:00 Y:60 P:27 SP:FC
D09D  C8        INY                             A:69 X:00 Y:60 P:27 SP:FE
D09E  20 3D F8  JSR $F83D = 38                  A:69 X:00 Y:61 P:25 SP:FE
F83D  38        SEC                             A:69 X:00 Y:61 P:25 SP:FC
F83E  24 01     BIT $01 = FF                    A:69 X:00 Y:61 P:25 SP:FC
F840  A9 00     LDA #$00                        A:69 X:00 Y:61 P:E5 SP:FC
F842  60        RTS                             A:00 X:00 Y:61 P:67 SP:FC
D0A1  61 80     ADC ($80,X) @ 80 = 0200 = 69    A:00 X:00 Y:61 P:67 SP:FE
D0A3  20 43 F8  JSR $F843 = 30                  A:6A X:00 Y:61 P:24 SP:FE
F843  30 09     BMI $F84E                       A:6A X:00 Y:61 P:24 SP:FC
F845  B0 07     BCS $F84E                       A:6A X:00 Y:61 P:24 SP:FC
F847  C9 6A     CMP #$6A                        A:6A X:00 Y:61 P:24 SP:FC
F849  D0 03     BNE $F84E                       A:6A X:00 Y:61 P:27 SP:FC
F84B  70 01     BVS $F84E                       A:6A X:00 Y:61 P:27 SP:FC
F84D  60        RTS                             A:6A X:00 Y:61 P:27 SP:FC
D0A6  C8        INY                             A:6A X:00 Y:61 P:27 SP:FE
D0A7  A9 7F     LDA #$7F                        A:6A X:00 Y:62 P:25 SP:FE
D0A9  8D 00 02  STA $0200 = 69                  A:7F X:00 Y:62 P:25 SP:FE
D0AC  20 51 F8  JSR $F851 = 38                  A:7F X:00 Y:62 P:25 SP:FE
F851  38        SEC                             A:7F X:00 Y:62 P:25 SP:FC
F852  B8        CLV                             A:7F X:00 Y:62 P:25 SP:FC
F853  A9 7F     LDA #$7F                        A:7F X:00 Y:62 P:25 SP:FC
F855  60        RTS                             A:7F X:00 Y:62 P:25 SP:FC
D0AF  61 80     ADC ($80,X) @ 80 = 0200 = 7F    A:7F X:00 Y:62 P:25 SP:FE
D0B1  20 56 F8  JSR $F856 = 10                  A:FF X:00 Y:62 P:E4 SP:FE
F856  10 09     BPL $F861                       A:FF X:00 Y:62 P:E4 SP:FC
F858  B0 07     BCS $F861                       A:FF X:00 Y:62 P:E4 SP:FC
F85A  C9 FF     CMP #$FF                        A:FF X:00 Y:62 P:E4 SP:FC
F85C  D0 03     BNE $F861                       A:FF X:00 Y:62 P:67 SP:FC
F85E  50 01     BVC $F861                       A:FF X:00 Y:62 P:67 SP:FC
F860  60        RTS                             A:FF X:00 Y:62 P:67 SP:FC
D0B4  C8        INY                             A:FF X:00 Y:62 P:67 SP:FE
D0B5  A9 80     LDA #$80                        A:FF X:00 Y:63 P:65 SP:FE
D0B7  8D 00 02  STA $0200 = 7F                  A:80 X:00 Y:63 P:E5 SP:FE
D0BA  20 64 F8  JSR $F864 = 18                  A:80 X:00 Y:63 P:E5 SP:FE
F864  18        CEC                             A:80 X:00 Y:63 P:E5 SP:FC
F865  24 01     BIT $01 = FF                    A:80 X:00 Y:63 P:E4 SP:FC
F867  A9 7F     LDA #$7F                        A:80 X:00 Y:63 P:E4 SP:FC
F869  60        RTS                             A:7F X:00 Y:63 P:64 SP:FC
D0BD  61 80     ADC ($80,X) @ 80 = 0200 = 80    A:7F X:00 Y:63 P:64 SP:FE
D0BF  20 6A F8  JSR $F86A = 10                  A:FF X:00 Y:63 P:A4 SP:FE
F86A  10 09     BPL $F875                       A:FF X:00 Y:63 P:A4 SP:FC
F86C  B0 07     BCS $F875                       A:FF X:00 Y:63 P:A4 SP:FC
F86E  C9 FF     CMP #$FF                        A:FF X:00 Y:63 P:A4 SP:FC
F870  D0 03     BNE $F875                       A:FF X:00 Y:63 P:27 SP:FC
F872  70 01     BVS $F875                       A:FF X:00 Y:63 P:27 SP:FC
F874  60        RTS                             A:FF X:00 Y:63 P:27 SP:FC
D0C2  C8        INY                             A:FF X:00 Y:63 P:27 SP:FE
D0C3  20 78 F8  JSR $F878 = 38                  A:FF X:00 Y:64 P:25 SP:FE
F878  38        SEC                             A:FF X:00 Y:64 P:25 SP:FC
F879  B8        CLV                             A:FF X:00 Y:64 P:25 SP:FC
F87A  A9 7F     LDA #$7F                        A:FF X:00 Y:64 P:25 SP:FC
F87C  60        RTS                             A:7F X:00 Y:64 P:25 SP:FC
D0C6  61 80     ADC ($80,X) @ 80 = 0200 = 80    A:7F X:00 Y:64 P:25 SP:FE
D0C8  20 7D F8  JSR $F87D = D0                  A:00 X:00 Y:64 P:27 SP:FE
F87D  D0 07     BNE $F886                       A:00 X:00 Y:64 P:27 SP:FC
F87F  30 05     BMI $F886                       A:00 X:00 Y:64 P:27 SP:FC
F881  70 03     BVS $F886                       A:00 X:00 Y:64 P:27 SP:FC
F883  90 01     BCC $F886                       A:00 X:00 Y:64 P:27 SP:FC
F885  60        RTS                             A:00 X:00 Y:64 P:27 SP:FC
D0CB  C8        INY                             A:00 X:00 Y:64 P:27 SP:FE
D0CC  A9 40     LDA #$40                        A:00 X:00 Y:65 P:25 SP:FE
D0CE  8D 00 02  STA $0200 = 80                  A:40 X:00 Y:65 P:25 SP:FE
D0D1  20 89 F8  JSR $F889 = 24                  A:40 X:00 Y:65 P:25 SP:FE
F889  24 01     BIT $01 = FF                    A:40 X:00 Y:65 P:25 SP:FC
F88B  A9 40     LDA #$40                        A:40 X:00 Y:65 P:E5 SP:FC
F88D  60        RTS                             A:40 X:00 Y:65 P:65 SP:FC
D0D4  C1 80     CMP ($80,X) @ 80 = 0200 = 40    A:40 X:00 Y:65 P:65 SP:FE
D0D6  20 8E F8  JSR $F88E = 30                  A:40 X:00 Y:65 P:67 SP:FE
F88E  30 07     BMI $F897                       A:40 X:00 Y:65 P:67 SP:FC
F890  90 05     BCC $F897                       A:40 X:00 Y:65 P:67 SP:FC
F892  D0 03     BNE $F897                       A:40 X:00 Y:65 P:67 SP:FC
F894  50 01     BVC $F897                       A:40 X:00 Y:65 P:67 SP:FC
F896  60        RTS                             A:40 X:00 Y:65 P:67 SP:FC
D0D9  C8        INY                             A:40 X:00 Y:65 P:67 SP:FE
D0DA  48        PHA                             A:40 X:00 Y:66 P:65 SP:FE
D0DB  A9 3F     LDA #$3F                        A:40 X:00 Y:66 P:65 SP:FD
D0DD  8D 00 02  STA $0200 = 40                  A:3F X:00 Y:66 P:65 SP:FD
D0E0  68        PLA                             A:3F X:00 Y:66 P:65 SP:FD
D0E1  20 9A F8  JSR $F89A = B8                  A:40 X:00 Y:66 P:65 SP:FE
F89A  B8        CLV                             A:40 X:00 Y:66 P:65 SP:FC
F89B  60        RTS                             A:40 X:00 Y:66 P:25 SP:FC
D0E4  C1 80     CMP ($80,X) @ 80 = 0200 = 3F    A:40 X:00 Y:66 P:25 SP:FE
D0E6  20 9C F8  JSR $F89C = F0                  A:40 X:00 Y:66 P:25 SP:FE
F89C  F0 07     BEQ $F8A5                       A:40 X:00 Y:66 P:25 SP:FC
F89E  30 05     BMI $F8A5                       A:40 X:00 Y:66 P:25 SP:FC
F8A0  90 03     BCC $F8A5                       A:40 X:00 Y:66 P:25 SP:FC
F8A2  70 01     BVS $F8A5                       A:40 X:00 Y:66 P:25 SP:FC
F8A4  60        RTS                             A:40 X:00 Y:66 P:25 SP:FC
D0E9  C8        INY                             A:40 X:00 Y:66 P:25 SP:FE
D0EA  48        PHA                             A:40 X:00 Y:67 P:25 SP:FE
D0EB  A9 41     LDA #$41                        A:40 X:00 Y:67 P:25 SP:FD
D0ED  8D 00 02  STA $0200 = 3F                  A:41 X:00 Y:67 P:25 SP:FD
D0F0  68        PLA                             A:41 X:00 Y:67 P:25 SP:FD
D0F1  C1 80     CMP ($80,X) @ 80 = 0200 = 41    A:40 X:00 Y:67 P:25 SP:FE
D0F3  20 A8 F8  JSR $F8A8 = F0                  A:40 X:00 Y:67 P:A4 SP:FE
F8A8  F0 05     BEQ $F8AF                       A:40 X:00 Y:67 P:A4 SP:FC
F8AA  10 03     BPL $F8AF                       A:40 X:00 Y:67 P:A4 SP:FC
F8AC  10 01     BPL $F8AF                       A:40 X:00 Y:67 P:A4 SP:FC
F8AE  60        RTS                             A:40 X:00 Y:67 P:A4 SP:FC
D0F6  C8        INY                             A:40 X:00 Y:67 P:A4 SP:FE
D0F7  48        PHA                             A:40 X:00 Y:68 P:24 SP:FE
D0F8  A9 00     LDA #$00                        A:40 X:00 Y:68 P:24 SP:FD
D0FA  8D 00 02  STA $0200 = 41                  A:00 X:00 Y:68 P:26 SP:FD
D0FD  68        PLA                             A:00 X:00 Y:68 P:26 SP:FD
D0FE  20 B2 F8  JSR $F8B2 = A9                  A:40 X:00 Y:68 P:24 SP:FE
F8B2  A9 80     LDA #$80                        A:40 X:00 Y:68 P:24 SP:FC
F8B4  60        RTS                             A:80 X:00 Y:68 P:A4 SP:FC
D101  C1 80     CMP ($80,X) @ 80 = 0200 = 00    A:80 X:00 Y:68 P:A4 SP:FE
D103  20 B5 F8  JSR $F8B5 = F0                  A:80 X:00 Y:68 P:A5 SP:FE
F8B5  F0 05     BEQ $F8BC                       A:80 X:00 Y:68 P:A5 SP:FC
F8B7  10 03     BPL $F8BC                       A:80 X:00 Y:68 P:A5 SP:FC
F8B9  90 01     BCC $F8BC                       A:80 X:00 Y:68 P:A5 SP:FC
F8BB  60        RTS                             A:80 X:00 Y:68 P:A5 SP:FC
D106  C8        INY                             A:80 X:00 Y:68 P:A5 SP:FE
D107  48        PHA                             A:80 X:00 Y:69 P:25 SP:FE
D108  A9 80     LDA #$80                        A:80 X:00 Y:69 P:25 SP:FD
D10A  8D 00 02  STA $0200 = 00                  A:80 X:00 Y:69 P:A5 SP:FD
D10D  68        PLA                             A:80 X:00 Y:69 P:A5 SP:FD
D10E  C1 80     CMP ($80,X) @ 80 = 0200 = 80    A:80 X:00 Y:69 P:A5 SP:FE
D110  20 BF F8  JSR $F8BF = D0                  A:80 X:00 Y:69 P:27 SP:FE
F8BF  D0 05     BNE $F8C6                       A:80 X:00 Y:69 P:27 SP:FC
F8C1  30 03     BMI $F8C6                       A:80 X:00 Y:69 P:27 SP:FC
F8C3  90 01     BCC $F8C6                       A:80 X:00 Y:69 P:27 SP:FC
F8C5  60        RTS                             A:80 X:00 Y:69 P:27 SP:FC
D113  C8        INY                             A:80 X:00 Y:69 P:27 SP:FE
D114  48        PHA                             A:80 X:00 Y:6A P:25 SP:FE
D115  A9 81     LDA #$81                        A:80 X:00 Y:6A P:25 SP:FD
D117  8D 00 02  STA $0200 = 80                  A:81 X:00 Y:6A P:A5 SP:FD
D11A  68        PLA                             A:81 X:00 Y:6A P:A5 SP:FD
D11B  C1 80     CMP ($80,X) @ 80 = 0200 = 81    A:80 X:00 Y:6A P:A5 SP:FE
D11D  20 C9 F8  JSR $F8C9 = B0                  A:80 X:00 Y:6A P:A4 SP:FE
F8C9  B0 05     BCS $F8D0                       A:80 X:00 Y:6A P:A4 SP:FC
F8CB  F0 03     BEQ $F8D0                       A:80 X:00 Y:6A P:A4 SP:FC
F8CD  10 01     BPL $F8D0                       A:80 X:00 Y:6A P:A4 SP:FC
F8CF  60        RTS                             A:80 X:00 Y:6A P:A4 SP:FC
D120  C8        INY                             A:80 X:00 Y:6A P:A4 SP:FE
D121  48        PHA                             A:80 X:00 Y:6B P:24 SP:FE
D122  A9 7F     LDA #$7F                        A:80 X:00 Y:6B P:24 SP:FD
D124  8D 00 02  STA $0200 = 81                  A:7F X:00 Y:6B P:24 SP:FD
D127  68        PLA                             A:7F X:00 Y:6B P:24 SP:FD
D128  C1 80     CMP ($80,X) @ 80 = 0200 = 7F    A:80 X:00 Y:6B P:A4 SP:FE
D12A  20 D3 F8  JSR $F8D3 = 90                  A:80 X:00 Y:6B P:25 SP:FE
F8D3  90 05     BCC $F8DA                       A:80 X:00 Y:6B P:25 SP:FC
F8D5  F0 03     BEQ $F8DA                       A:80 X:00 Y:6B P:25 SP:FC
F8D7  30 01     BMI $F8DA                       A:80 X:00 Y:6B P:25 SP:FC
F8D9  60        RTS                             A:80 X:00 Y:6B P:25 SP:FC
D12D  C8        INY                             A:80 X:00 Y:6B P:25 SP:FE
D12E  A9 40     LDA #$40                        A:80 X:00 Y:6C P:25 SP:FE
D130  8D 00 02  STA $0200 = 7F                  A:40 X:00 Y:6C P:25 SP:FE
D133  20 31 F9  JSR $F931 = 24                  A:40 X:00 Y:6C P:25 SP:FE
F931  24 01     BIT $01 = FF                    A:40 X:00 Y:6C P:25 SP:FC
F933  A9 40     LDA #$40                        A:40 X:00 Y:6C P:E5 SP:FC
F935  38        SEC                             A:40 X:00 Y:6C P:65 SP:FC
F936  60        RTS                             A:40 X:00 Y:6C P:65 SP:FC
D136  E1 80     SBC ($80,X) @ 80 = 0200 = 40    A:40 X:00 Y:6C P:65 SP:FE
D138  20 37 F9  JSR $F937 = 30                  A:00 X:00 Y:6C P:27 SP:FE
F937  30 0B     BMI $F944                       A:00 X:00 Y:6C P:27 SP:FC
F939  90 09     BCC $F944                       A:00 X:00 Y:6C P:27 SP:FC
F93B  D0 07     BNE $F944                       A:00 X:00 Y:6C P:27 SP:FC
F93D  70 05     BVS $F944                       A:00 X:00 Y:6C P:27 SP:FC
F93F  C9 00     CMP #$00                        A:00 X:00 Y:6C P:27 SP:FC
F941  D0 01     BNE $F944                       A:00 X:00 Y:6C P:27 SP:FC
F943  60        RTS                             A:00 X:00 Y:6C P:27 SP:FC
D13B  C8        INY                             A:00 X:00 Y:6C P:27 SP:FE
D13C  A9 3F     LDA #$3F                        A:00 X:00 Y:6D P:25 SP:FE
D13E  8D 00 02  STA $0200 = 40                  A:3F X:00 Y:6D P:25 SP:FE
D141  20 47 F9  JSR $F947 = B8                  A:3F X:00 Y:6D P:25 SP:FE
F947  B8        CLV                             A:3F X:00 Y:6D P:25 SP:FC
F948  38        SEC                             A:3F X:00 Y:6D P:25 SP:FC
F949  A9 40     LDA #$40                        A:3F X:00 Y:6D P:25 SP:FC
F94B  60        RTS                             A:40 X:00 Y:6D P:25 SP:FC
D144  E1 80     SBC ($80,X) @ 80 = 0200 = 3F    A:40 X:00 Y:6D P:25 SP:FE
D146  20 4C F9  JSR $F94C = F0                  A:01 X:00 Y:6D P:25 SP:FE
F94C  F0 0B     BEQ $F959                       A:01 X:00 Y:6D P:25 SP:FC
F94E  30 09     BMI $F959                       A:01 X:00 Y:6D P:25 SP:FC
F950  90 07     BCC $F959                       A:01 X:00 Y:6D P:25 SP:FC
F952  70 05     BVS $F959                       A:01 X:00 Y:6D P:25 SP:FC
F954  C9 01     CMP #$01                        A:01 X:00 Y:6D P:25 SP:FC
F956  D0 01     BNE $F959                       A:01 X:00 Y:6D P:27 SP:FC
F958  60        RTS                             A:01 X:00 Y:6D P:27 SP:FC
D149  C8        INY                             A:01 X:00 Y:6D P:27 SP:FE
D14A  A9 41     LDA #$41                        A:01 X:00 Y:6E P:25 SP:FE
D14C  8D 00 02  STA $0200 = 3F                  A:41 X:00 Y:6E P:25 SP:FE
D14F  20 5C F9  JSR $F95C = A9                  A:41 X:00 Y:6E P:25 SP:FE
F95C  A9 40     LDA #$40                        A:41 X:00 Y:6E P:25 SP:FC
F95E  38        SEC                             A:40 X:00 Y:6E P:25 SP:FC
F95F  24 01     BIT $01 = FF                    A:40 X:00 Y:6E P:25 SP:FC
F961  60        RTS                             A:40 X:00 Y:6E P:E5 SP:FC
D152  E1 80     SBC ($80,X) @ 80 = 0200 = 41    A:40 X:00 Y:6E P:E5 SP:FE
D154  20 62 F9  JSR $F962 = B0                  A:FF X:00 Y:6E P:A4 SP:FE
F962  B0 0B     BCS $F96F                       A:FF X:00 Y:6E P:A4 SP:FC
F964  F0 09     BEQ $F96F                       A:FF X:00 Y:6E P:A4 SP:FC
F966  10 07     BPL $F96F                       A:FF X:00 Y:6E P:A4 SP:FC
F968  70 05     BVS $F96F                       A:FF X:00 Y:6E P:A4 SP:FC
F96A  C9 FF     CMP #$FF                        A:FF X:00 Y:6E P:A4 SP:FC
F96C  D0 01     BNE $F96F                       A:FF X:00 Y:6E P:27 SP:FC
F96E  60        RTS                             A:FF X:00 Y:6E P:27 SP:FC
D157  C8        INY                             A:FF X:00 Y:6E P:27 SP:FE
D158  A9 00     LDA #$00                        A:FF X:00 Y:6F P:25 SP:FE
D15A  8D 00 02  STA $0200 = 41                  A:00 X:00 Y:6F P:27 SP:FE
D15D  20 72 F9  JSR $F972 = 18                  A:00 X:00 Y:6F P:27 SP:FE
F972  18        CEC                             A:00 X:00 Y:6F P:27 SP:FC
F973  A9 80     LDA #$80                        A:00 X:00 Y:6F P:26 SP:FC
F975  60        RTS                             A:80 X:00 Y:6F P:A4 SP:FC
D160  E1 80     SBC ($80,X) @ 80 = 0200 = 00    A:80 X:00 Y:6F P:A4 SP:FE
D162  20 76 F9  JSR $F976 = 90                  A:7F X:00 Y:6F P:65 SP:FE
F976  90 05     BCC $F97D                       A:7F X:00 Y:6F P:65 SP:FC
F978  C9 7F     CMP #$7F                        A:7F X:00 Y:6F P:65 SP:FC
F97A  D0 01     BNE $F97D                       A:7F X:00 Y:6F P:67 SP:FC
F97C  60        RTS                             A:7F X:00 Y:6F P:67 SP:FC
D165  C8        INY                             A:7F X:00 Y:6F P:67 SP:FE
D166  A9 7F     LDA #$7F                        A:7F X:00 Y:70 P:65 SP:FE
D168  8D 00 02  STA $0200 = 00                  A:7F X:00 Y:70 P:65 SP:FE
D16B  20 80 F9  JSR $F980 = 38                  A:7F X:00 Y:70 P:65 SP:FE
F980  38        SEC                             A:7F X:00 Y:70 P:65 SP:FC
F981  A9 81     LDA #$81                        A:7F X:00 Y:70 P:65 SP:FC
F983  60        RTS                             A:81 X:00 Y:70 P:E5 SP:FC
D16E  E1 80     SBC ($80,X) @ 80 = 0200 = 7F    A:81 X:00 Y:70 P:E5 SP:FE
D170  20 84 F9  JSR $F984 = 50                  A:02 X:00 Y:70 P:65 SP:FE
F984  50 07     BVC $F98D                       A:02 X:00 Y:70 P:65 SP:FC
F986  90 05     BCC $F98D                       A:02 X:00 Y:70 P:65 SP:FC
F988  C9 02     CMP #$02                        A:02 X:00 Y:70 P:65 SP:FC
F98A  D0 01     BNE $F98D                       A:02 X:00 Y:70 P:67 SP:FC
F98C  60        RTS                             A:02 X:00 Y:70 P:67 SP:FC
D173  60        RTS                             A:02 X:00 Y:70 P:67 SP:FE
C612  20 74 D1  JSR $D174 = A9                  A:02 X:00 Y:70 P:67 SP:00
D174  A9 55     LDA #$55                        A:02 X:00 Y:70 P:67 SP:FE
D176  85 78     STA $78 = 00                    A:55 X:00 Y:70 P:65 SP:FE
D178  A9 FF     LDA #$FF                        A:55 X:00 Y:70 P:65 SP:FE
D17A  85 01     STA $01 = FF                    A:FF X:00 Y:70 P:E5 SP:FE
D17C  24 01     BIT $01 = FF                    A:FF X:00 Y:70 P:E5 SP:FE
D17E  A0 11     LDY #$11                        A:FF X:00 Y:70 P:E5 SP:FE
D180  A2 23     LDX #$23                        A:FF X:00 Y:11 P:65 SP:FE
D182  A9 00     LDA #$00                        A:FF X:23 Y:11 P:65 SP:FE
D184  A5 78     LDA $78 = 55                    A:00 X:23 Y:11 P:67 SP:FE
D186  F0 10     BEQ $D198                       A:55 X:23 Y:11 P:65 SP:FE
D188  30 0E     BMI $D198                       A:55 X:23 Y:11 P:65 SP:FE
D18A  C9 55     CMP #$55                        A:55 X:23 Y:11 P:65 SP:FE
D18C  D0 0A     BNE $D198                       A:55 X:23 Y:11 P:67 SP:FE
D18E  C0 11     CPY #$11                        A:55 X:23 Y:11 P:67 SP:FE
D190  D0 06     BNE $D198                       A:55 X:23 Y:11 P:67 SP:FE
D192  E0 23     CPX #$23                        A:55 X:23 Y:11 P:67 SP:FE
D194  50 02     BVC $D198                       A:55 X:23 Y:11 P:67 SP:FE
D196  F0 04     BEQ $D19C                       A:55 X:23 Y:11 P:67 SP:FE
D19C  A9 46     LDA #$46                        A:55 X:23 Y:11 P:67 SP:FE
D19E  24 01     BIT $01 = FF                    A:46 X:23 Y:11 P:65 SP:FE
D1A0  85 78     STA $78 = 55                    A:46 X:23 Y:11 P:E5 SP:FE
D1A2  F0 0A     BEQ $D1AE                       A:46 X:23 Y:11 P:E5 SP:FE
D1A4  10 08     BPL $D1AE                       A:46 X:23 Y:11 P:E5 SP:FE
D1A6  50 06     BVC $D1AE                       A:46 X:23 Y:11 P:E5 SP:FE
D1A8  A5 78     LDA $78 = 46                    A:46 X:23 Y:11 P:E5 SP:FE
D1AA  C9 46     CMP #$46                        A:46 X:23 Y:11 P:65 SP:FE
D1AC  F0 04     BEQ $D1B2                       A:46 X:23 Y:11 P:67 SP:FE
D1B2  A9 55     LDA #$55                        A:46 X:23 Y:11 P:67 SP:FE
D1B4  85 78     STA $78 = 46                    A:55 X:23 Y:11 P:65 SP:FE
D1B6  24 01     BIT $01 = FF                    A:55 X:23 Y:11 P:65 SP:FE
D1B8  A9 11     LDA #$11                        A:55 X:23 Y:11 P:E5 SP:FE
D1BA  A2 23     LDX #$23                        A:11 X:23 Y:11 P:65 SP:FE
D1BC  A0 00     LDY #$00                        A:11 X:23 Y:11 P:65 SP:FE
D1BE  A4 78     LDY $78 = 55                    A:11 X:23 Y:00 P:67 SP:FE
D1C0  F0 10     BEQ $D1D2                       A:11 X:23 Y:55 P:65 SP:FE
D1C2  30 0E     BMI $D1D2                       A:11 X:23 Y:55 P:65 SP:FE
D1C4  C0 55     CPY #$55                        A:11 X:23 Y:55 P:65 SP:FE
D1C6  D0 0A     BNE $D1D2                       A:11 X:23 Y:55 P:67 SP:FE
D1C8  C9 11     CMP #$11                        A:11 X:23 Y:55 P:67 SP:FE
D1CA  D0 06     BNE $D1D2                       A:11 X:23 Y:55 P:67 SP:FE
D1CC  E0 23     CPX #$23                        A:11 X:23 Y:55 P:67 SP:FE
D1CE  50 02     BVC $D1D2                       A:11 X:23 Y:55 P:67 SP:FE
D1D0  F0 04     BEQ $D1D6                       A:11 X:23 Y:55 P:67 SP:FE
D1D6  A0 46     LDY #$46                        A:11 X:23 Y:55 P:67 SP:FE
D1D8  24 01     BIT $01 = FF                    A:11 X:23 Y:46 P:65 SP:FE
D1DA  84 78     STY $78 = 55                    A:11 X:23 Y:46 P:E5 SP:FE
D1DC  F0 0A     BEQ $D1E8                       A:11 X:23 Y:46 P:E5 SP:FE
D1DE  10 08     BPL $D1E8                       A:11 X:23 Y:46 P:E5 SP:FE
D1E0  50 06     BVC $D1E8                       A:11 X:23 Y:46 P:E5 SP:FE
D1E2  A4 78     LDY $78 = 46                    A:11 X:23 Y:46 P:E5 SP:FE
D1E4  C0 46     CPY #$46                        A:11 X:23 Y:46 P:65 SP:FE
D1E6  F0 04     BEQ $D1EC                       A:11 X:23 Y:46 P:67 SP:FE
D1EC  24 01     BIT $01 = FF                    A:11 X:23 Y:46 P:67 SP:FE
D1EE  A9 55     LDA #$55                        A:11 X:23 Y:46 P:E5 SP:FE
D1F0  85 78     STA $78 = 46                    A:55 X:23 Y:46 P:65 SP:FE
D1F2  A0 11     LDY #$11                        A:55 X:23 Y:46 P:65 SP:FE
D1F4  A9 23     LDA #$23                        A:55 X:23 Y:11 P:65 SP:FE
D1F6  A2 00     LDX #$00                        A:23 X:23 Y:11 P:65 SP:FE
D1F8  A6 78     LDX $78 = 55                    A:23 X:00 Y:11 P:67 SP:FE
D1FA  F0 10     BEQ $D20C                       A:23 X:55 Y:11 P:65 SP:FE
D1FC  30 0E     BMI $D20C                       A:23 X:55 Y:11 P:65 SP:FE
D1FE  E0 55     CPX #$55                        A:23 X:55 Y:11 P:65 SP:FE
D200  D0 0A     BNE $D20C                       A:23 X:55 Y:11 P:67 SP:FE
D202  C0 11     CPY #$11                        A:23 X:55 Y:11 P:67 SP:FE
D204  D0 06     BNE $D20C                       A:23 X:55 Y:11 P:67 SP:FE
D206  C9 23     CMP #$23                        A:23 X:55 Y:11 P:67 SP:FE
D208  50 02     BVC $D20C                       A:23 X:55 Y:11 P:67 SP:FE
D20A  F0 04     BEQ $D210                       A:23 X:55 Y:11 P:67 SP:FE
D210  A2 46     LDX #$46                        A:23 X:55 Y:11 P:67 SP:FE
D212  24 01     BIT $01 = FF                    A:23 X:46 Y:11 P:65 SP:FE
D214  86 78     STX $78 = 55                    A:23 X:46 Y:11 P:E5 SP:FE
D216  F0 0A     BEQ $D222                       A:23 X:46 Y:11 P:E5 SP:FE
D218  10 08     BPL $D222                       A:23 X:46 Y:11 P:E5 SP:FE
D21A  50 06     BVC $D222                       A:23 X:46 Y:11 P:E5 SP:FE
D21C  A6 78     LDX $78 = 46                    A:23 X:46 Y:11 P:E5 SP:FE
D21E  E0 46     CPX #$46                        A:23 X:46 Y:11 P:65 SP:FE
D220  F0 04     BEQ $D226                       A:23 X:46 Y:11 P:67 SP:FE
D226  A9 C0     LDA #$C0                        A:23 X:46 Y:11 P:67 SP:FE
D228  85 78     STA $78 = 46                    A:C0 X:46 Y:11 P:E5 SP:FE
D22A  A2 33     LDX #$33                        A:C0 X:46 Y:11 P:E5 SP:FE
D22C  A0 88     LDY #$88                        A:C0 X:33 Y:11 P:65 SP:FE
D22E  A9 05     LDA #$05                        A:C0 X:33 Y:88 P:E5 SP:FE
D230  24 78     BIT $78 = C0                    A:05 X:33 Y:88 P:65 SP:FE
D232  10 10     BPL $D244                       A:05 X:33 Y:88 P:E7 SP:FE
D234  50 0E     BVC $D244                       A:05 X:33 Y:88 P:E7 SP:FE
D236  D0 0C     BNE $D244                       A:05 X:33 Y:88 P:E7 SP:FE
D238  C9 05     CMP #$05                        A:05 X:33 Y:88 P:E7 SP:FE
D23A  D0 08     BNE $D244                       A:05 X:33 Y:88 P:67 SP:FE
D23C  E0 33     CPX #$33                        A:05 X:33 Y:88 P:67 SP:FE
D23E  D0 04     BNE $D244                       A:05 X:33 Y:88 P:67 SP:FE
D240  C0 88     CPY #$88                        A:05 X:33 Y:88 P:67 SP:FE
D242  F0 04     BEQ $D248                       A:05 X:33 Y:88 P:67 SP:FE
D248  A9 03     LDA #$03                        A:05 X:33 Y:88 P:67 SP:FE
D24A  85 78     STA $78 = C0                    A:03 X:33 Y:88 P:65 SP:FE
D24C  A9 01     LDA #$01                        A:03 X:33 Y:88 P:65 SP:FE
D24E  24 78     BIT $78 = 03                    A:01 X:33 Y:88 P:65 SP:FE
D250  30 08     BMI $D25A                       A:01 X:33 Y:88 P:25 SP:FE
D252  70 06     BVS $D25A                       A:01 X:33 Y:88 P:25 SP:FE
D254  F0 04     BEQ $D25A                       A:01 X:33 Y:88 P:25 SP:FE
D256  C9 01     CMP #$01                        A:01 X:33 Y:88 P:25 SP:FE
D258  F0 04     BEQ $D25E                       A:01 X:33 Y:88 P:27 SP:FE
D25E  A0 7E     LDY #$7E                        A:01 X:33 Y:88 P:27 SP:FE
D260  A9 AA     LDA #$AA                        A:01 X:33 Y:7E P:25 SP:FE
D262  85 78     STA $78 = 03                    A:AA X:33 Y:7E P:A5 SP:FE
D264  20 B6 F7  JSR $F7B6 = 18                  A:AA X:33 Y:7E P:A5 SP:FE
F7B6  18        CEC                             A:AA X:33 Y:7E P:A5 SP:FC
F7B7  A9 FF     LDA #$FF                        A:AA X:33 Y:7E P:A4 SP:FC
F7B9  85 01     STA $01 = FF                    A:FF X:33 Y:7E P:A4 SP:FC
F7BB  24 01     BIT $01 = FF                    A:FF X:33 Y:7E P:A4 SP:FC
F7BD  A9 55     LDA #$55                        A:FF X:33 Y:7E P:E4 SP:FC
F7BF  60        RTS                             A:55 X:33 Y:7E P:64 SP:FC
D267  05 78     ORA $78 = AA                    A:55 X:33 Y:7E P:64 SP:FE
D269  20 C0 F7  JSR $F7C0 = B0                  A:FF X:33 Y:7E P:E4 SP:FE
F7C0  B0 09     BCS $F7CB                       A:FF X:33 Y:7E P:E4 SP:FC
F7C2  10 07     BPL $F7CB                       A:FF X:33 Y:7E P:E4 SP:FC
F7C4  C9 FF     CMP #$FF                        A:FF X:33 Y:7E P:E4 SP:FC
F7C6  D0 03     BNE $F7CB                       A:FF X:33 Y:7E P:67 SP:FC
F7C8  50 01     BVC $F7CB                       A:FF X:33 Y:7E P:67 SP:FC
F7CA  60        RTS                             A:FF X:33 Y:7E P:67 SP:FC
D26C  C8        INY                             A:FF X:33 Y:7E P:67 SP:FE
D26D  A9 00     LDA #$00                        A:FF X:33 Y:7F P:65 SP:FE
D26F  85 78     STA $78 = AA                    A:00 X:33 Y:7F P:67 SP:FE
D271  20 CE F7  JSR $F7CE = 38                  A:00 X:33 Y:7F P:67 SP:FE
F7CE  38        SEC                             A:00 X:33 Y:7F P:67 SP:FC
F7CF  B8        CLV                             A:00 X:33 Y:7F P:67 SP:FC
F7D0  A9 00     LDA #$00                        A:00 X:33 Y:7F P:27 SP:FC
F7D2  60        RTS                             A:00 X:33 Y:7F P:27 SP:FC
D274  05 78     ORA $78 = 00                    A:00 X:33 Y:7F P:27 SP:FE
D276  20 D3 F7  JSR $F7D3 = D0                  A:00 X:33 Y:7F P:27 SP:FE
F7D3  D0 07     BNE $F7DC                       A:00 X:33 Y:7F P:27 SP:FC
F7D5  70 05     BVS $F7DC                       A:00 X:33 Y:7F P:27 SP:FC
F7D7  90 03     BCC $F7DC                       A:00 X:33 Y:7F P:27 SP:FC
F7D9  30 01     BMI $F7DC                       A:00 X:33 Y:7F P:27 SP:FC
F7DB  60        RTS                             A:00 X:33 Y:7F P:27 SP:FC
D279  C8        INY                             A:00 X:33 Y:7F P:27 SP:FE
D27A  A9 AA     LDA #$AA                        A:00 X:33 Y:80 P:A5 SP:FE
D27C  85 78     STA $78 = 00                    A:AA X:33 Y:80 P:A5 SP:FE
D27E  20 DF F7  JSR $F7DF = 18                  A:AA X:33 Y:80 P:A5 SP:FE
F7DF  18        CEC                             A:AA X:33 Y:80 P:A5 SP:FC
F7E0  24 01     BIT $01 = FF                    A:AA X:33 Y:80 P:A4 SP:FC
F7E2  A9 55     LDA #$55                        A:AA X:33 Y:80 P:E4 SP:FC
F7E4  60        RTS                             A:55 X:33 Y:80 P:64 SP:FC
D281  25 78     AND $78 = AA                    A:55 X:33 Y:80 P:64 SP:FE
D283  20 E5 F7  JSR $F7E5 = D0                  A:00 X:33 Y:80 P:66 SP:FE
F7E5  D0 07     BNE $F7EE                       A:00 X:33 Y:80 P:66 SP:FC
F7E7  50 05     BVC $F7EE                       A:00 X:33 Y:80 P:66 SP:FC
F7E9  B0 03     BCS $F7EE                       A:00 X:33 Y:80 P:66 SP:FC
F7EB  30 01     BMI $F7EE                       A:00 X:33 Y:80 P:66 SP:FC
F7ED  60        RTS                             A:00 X:33 Y:80 P:66 SP:FC
D286  C8        INY                             A:00 X:33 Y:80 P:66 SP:FE
D287  A9 EF     LDA #$EF                        A:00 X:33 Y:81 P:E4 SP:FE
D289  85 78     STA $78 = AA                    A:EF X:33 Y:81 P:E4 SP:FE
D28B  20 F1 F7  JSR $F7F1 = 38                  A:EF X:33 Y:81 P:E4 SP:FE
F7F1  38        SEC                             A:EF X:33 Y:81 P:E4 SP:FC
F7F2  B8        CLV                             A:EF X:33 Y:81 P:E5 SP:FC
F7F3  A9 F8     LDA #$F8                        A:EF X:33 Y:81 P:A5 SP:FC
F7F5  60        RTS                             A:F8 X:33 Y:81 P:A5 SP:FC
D28E  25 78     AND $78 = EF                    A:F8 X:33 Y:81 P:A5 SP:FE
D290  20 F6 F7  JSR $F7F6 = 90                  A:E8 X:33 Y:81 P:A5 SP:FE
F7F6  90 09     BCC $F801                       A:E8 X:33 Y:81 P:A5 SP:FC
F7F8  10 07     BPL $F801                       A:E8 X:33 Y:81 P:A5 SP:FC
F7FA  C9 E8     CMP #$E8                        A:E8 X:33 Y:81 P:A5 SP:FC
F7FC  D0 03     BNE $F801                       A:E8 X:33 Y:81 P:27 SP:FC
F7FE  70 01     BVS $F801                       A:E8 X:33 Y:81 P:27 SP:FC
F800  60        RTS                             A:E8 X:33 Y:81 P:27 SP:FC
D293  C8        INY                             A:E8 X:33 Y:81 P:27 SP:FE
D294  A9 AA     LDA #$AA                        A:E8 X:33 Y:82 P:A5 SP:FE
D296  85 78     STA $78 = EF                    A:AA X:33 Y:82 P:A5 SP:FE
D298  20 04 F8  JSR $F804 = 18                  A:AA X:33 Y:82 P:A5 SP:FE
F804  18        CEC                             A:AA X:33 Y:82 P:A5 SP:FC
F805  24 01     BIT $01 = FF                    A:AA X:33 Y:82 P:A4 SP:FC
F807  A9 5F     LDA #$5F                        A:AA X:33 Y:82 P:E4 SP:FC
F809  60        RTS                             A:5F X:33 Y:82 P:64 SP:FC
D29B  45 78     EOR $78 = AA                    A:5F X:33 Y:82 P:64 SP:FE
D29D  20 0A F8  JSR $F80A = B0                  A:F5 X:33 Y:82 P:E4 SP:FE
F80A  B0 09     BCS $F815                       A:F5 X:33 Y:82 P:E4 SP:FC
F80C  10 07     BPL $F815                       A:F5 X:33 Y:82 P:E4 SP:FC
F80E  C9 F5     CMP #$F5                        A:F5 X:33 Y:82 P:E4 SP:FC
F810  D0 03     BNE $F815                       A:F5 X:33 Y:82 P:67 SP:FC
F812  50 01     BVC $F815                       A:F5 X:33 Y:82 P:67 SP:FC
F814  60        RTS                             A:F5 X:33 Y:82 P:67 SP:FC
D2A0  C8        INY                             A:F5 X:33 Y:82 P:67 SP:FE
D2A1  A9 70     LDA #$70                        A:F5 X:33 Y:83 P:E5 SP:FE
D2A3  85 78     STA $78 = AA                    A:70 X:33 Y:83 P:65 SP:FE
D2A5  20 18 F8  JSR $F818 = 38                  A:70 X:33 Y:83 P:65 SP:FE
F818  38        SEC                             A:70 X:33 Y:83 P:65 SP:FC
F819  B8        CLV                             A:70 X:33 Y:83 P:65 SP:FC
F81A  A9 70     LDA #$70                        A:70 X:33 Y:83 P:25 SP:FC
F81C  60        RTS                             A:70 X:33 Y:83 P:25 SP:FC
D2A8  45 78     EOR $78 = 70                    A:70 X:33 Y:83 P:25 SP:FE
D2AA  20 1D F8  JSR $F81D = D0                  A:00 X:33 Y:83 P:27 SP:FE
F81D  D0 07     BNE $F826                       A:00 X:33 Y:83 P:27 SP:FC
F81F  70 05     BVS $F826                       A:00 X:33 Y:83 P:27 SP:FC
F821  90 03     BCC $F826                       A:00 X:33 Y:83 P:27 SP:FC
F823  30 01     BMI $F826                       A:00 X:33 Y:83 P:27 SP:FC
F825  60        RTS                             A:00 X:33 Y:83 P:27 SP:FC
D2AD  C8        INY                             A:00 X:33 Y:83 P:27 SP:FE
D2AE  A9 69     LDA #$69                        A:00 X:33 Y:84 P:A5 SP:FE
D2B0  85 78     STA $78 = 70                    A:69 X:33 Y:84 P:25 SP:FE
D2B2  20 29 F8  JSR $F829 = 18                  A:69 X:33 Y:84 P:25 SP:FE
F829  18        CEC                             A:69 X:33 Y:84 P:25 SP:FC
F82A  24 01     BIT $01 = FF                    A:69 X:33 Y:84 P:24 SP:FC
F82C  A9 00     LDA #$00                        A:69 X:33 Y:84 P:E4 SP:FC
F82E  60        RTS                             A:00 X:33 Y:84 P:66 SP:FC
D2B5  65 78     ADC $78 = 69                    A:00 X:33 Y:84 P:66 SP:FE
D2B7  20 2F F8  JSR $F82F = 30                  A:69 X:33 Y:84 P:24 SP:FE
F82F  30 09     BMI $F83A                       A:69 X:33 Y:84 P:24 SP:FC
F831  B0 07     BCS $F83A                       A:69 X:33 Y:84 P:24 SP:FC
F833  C9 69     CMP #$69                        A:69 X:33 Y:84 P:24 SP:FC
F835  D0 03     BNE $F83A                       A:69 X:33 Y:84 P:27 SP:FC
F837  70 01     BVS $F83A                       A:69 X:33 Y:84 P:27 SP:FC
F839  60        RTS                             A:69 X:33 Y:84 P:27 SP:FC
D2BA  C8        INY                             A:69 X:33 Y:84 P:27 SP:FE
D2BB  20 3D F8  JSR $F83D = 38                  A:69 X:33 Y:85 P:A5 SP:FE
F83D  38        SEC                             A:69 X:33 Y:85 P:A5 SP:FC
F83E  24 01     BIT $01 = FF                    A:69 X:33 Y:85 P:A5 SP:FC
F840  A9 00     LDA #$00                        A:69 X:33 Y:85 P:E5 SP:FC
F842  60        RTS                             A:00 X:33 Y:85 P:67 SP:FC
D2BE  65 78     ADC $78 = 69                    A:00 X:33 Y:85 P:67 SP:FE
D2C0  20 43 F8  JSR $F843 = 30                  A:6A X:33 Y:85 P:24 SP:FE
F843  30 09     BMI $F84E                       A:6A X:33 Y:85 P:24 SP:FC
F845  B0 07     BCS $F84E                       A:6A X:33 Y:85 P:24 SP:FC
F847  C9 6A     CMP #$6A                        A:6A X:33 Y:85 P:24 SP:FC
F849  D0 03     BNE $F84E                       A:6A X:33 Y:85 P:27 SP:FC
F84B  70 01     BVS $F84E                       A:6A X:33 Y:85 P:27 SP:FC
F84D  60        RTS                             A:6A X:33 Y:85 P:27 SP:FC
D2C3  C8        INY                             A:6A X:33 Y:85 P:27 SP:FE
D2C4  A9 7F     LDA #$7F                        A:6A X:33 Y:86 P:A5 SP:FE
D2C6  85 78     STA $78 = 69                    A:7F X:33 Y:86 P:25 SP:FE
D2C8  20 51 F8  JSR $F851 = 38                  A:7F X:33 Y:86 P:25 SP:FE
F851  38        SEC                             A:7F X:33 Y:86 P:25 SP:FC
F852  B8        CLV                             A:7F X:33 Y:86 P:25 SP:FC
F853  A9 7F     LDA #$7F                        A:7F X:33 Y:86 P:25 SP:FC
F855  60        RTS                             A:7F X:33 Y:86 P:25 SP:FC
D2CB  65 78     ADC $78 = 7F                    A:7F X:33 Y:86 P:25 SP:FE
D2CD  20 56 F8  JSR $F856 = 10                  A:FF X:33 Y:86 P:E4 SP:FE
F856  10 09     BPL $F861                       A:FF X:33 Y:86 P:E4 SP:FC
F858  B0 07     BCS $F861                       A:FF X:33 Y:86 P:E4 SP:FC
F85A  C9 FF     CMP #$FF                        A:FF X:33 Y:86 P:E4 SP:FC
F85C  D0 03     BNE $F861                       A:FF X:33 Y:86 P:67 SP:FC
F85E  50 01     BVC $F861                       A:FF X:33 Y:86 P:67 SP:FC
F860  60        RTS                             A:FF X:33 Y:86 P:67 SP:FC
D2D0  C8        INY                             A:FF X:33 Y:86 P:67 SP:FE
D2D1  A9 80     LDA #$80                        A:FF X:33 Y:87 P:E5 SP:FE
D2D3  85 78     STA $78 = 7F                    A:80 X:33 Y:87 P:E5 SP:FE
D2D5  20 64 F8  JSR $F864 = 18                  A:80 X:33 Y:87 P:E5 SP:FE
F864  18        CEC                             A:80 X:33 Y:87 P:E5 SP:FC
F865  24 01     BIT $01 = FF                    A:80 X:33 Y:87 P:E4 SP:FC
F867  A9 7F     LDA #$7F                        A:80 X:33 Y:87 P:E4 SP:FC
F869  60        RTS                             A:7F X:33 Y:87 P:64 SP:FC
D2D8  65 78     ADC $78 = 80                    A:7F X:33 Y:87 P:64 SP:FE
D2DA  20 6A F8  JSR $F86A = 10                  A:FF X:33 Y:87 P:A4 SP:FE
F86A  10 09     BPL $F875                       A:FF X:33 Y:87 P:A4 SP:FC
F86C  B0 07     BCS $F875                       A:FF X:33 Y:87 P:A4 SP:FC
F86E  C9 FF     CMP #$FF                        A:FF X:33 Y:87 P:A4 SP:FC
F870  D0 03     BNE $F875                       A:FF X:33 Y:87 P:27 SP:FC
F872  70 01     BVS $F875                       A:FF X:33 Y:87 P:27 SP:FC
F874  60        RTS                             A:FF X:33 Y:87 P:27 SP:FC
D2DD  C8        INY                             A:FF X:33 Y:87 P:27 SP:FE
D2DE  20 78 F8  JSR $F878 = 38                  A:FF X:33 Y:88 P:A5 SP:FE
F878  38        SEC                             A:FF X:33 Y:88 P:A5 SP:FC
F879  B8        CLV                             A:FF X:33 Y:88 P:A5 SP:FC
F87A  A9 7F     LDA #$7F                        A:FF X:33 Y:88 P:A5 SP:FC
F87C  60        RTS                             A:7F X:33 Y:88 P:25 SP:FC
D2E1  65 78     ADC $78 = 80                    A:7F X:33 Y:88 P:25 SP:FE
D2E3  20 7D F8  JSR $F87D = D0                  A:00 X:33 Y:88 P:27 SP:FE
F87D  D0 07     BNE $F886                       A:00 X:33 Y:88 P:27 SP:FC
F87F  30 05     BMI $F886                       A:00 X:33 Y:88 P:27 SP:FC
F881  70 03     BVS $F886                       A:00 X:33 Y:88 P:27 SP:FC
F883  90 01     BCC $F886                       A:00 X:33 Y:88 P:27 SP:FC
F885  60        RTS                             A:00 X:33 Y:88 P:27 SP:FC
D2E6  C8        INY                             A:00 X:33 Y:88 P:27 SP:FE
D2E7  A9 40     LDA #$40                        A:00 X:33 Y:89 P:A5 SP:FE
D2E9  85 78     STA $78 = 80                    A:40 X:33 Y:89 P:25 SP:FE
D2EB  20 89 F8  JSR $F889 = 24                  A:40 X:33 Y:89 P:25 SP:FE
F889  24 01     BIT $01 = FF                    A:40 X:33 Y:89 P:25 SP:FC
F88B  A9 40     LDA #$40                        A:40 X:33 Y:89 P:E5 SP:FC
F88D  60        RTS                             A:40 X:33 Y:89 P:65 SP:FC
D2EE  C5 78     CMP $78 = 40                    A:40 X:33 Y:89 P:65 SP:FE
D2F0  20 8E F8  JSR $F88E = 30                  A:40 X:33 Y:89 P:67 SP:FE
F88E  30 07     BMI $F897                       A:40 X:33 Y:89 P:67 SP:FC
F890  90 05     BCC $F897                       A:40 X:33 Y:89 P:67 SP:FC
F892  D0 03     BNE $F897                       A:40 X:33 Y:89 P:67 SP:FC
F894  50 01     BVC $F897                       A:40 X:33 Y:89 P:67 SP:FC
F896  60        RTS                             A:40 X:33 Y:89 P:67 SP:FC
D2F3  C8        INY                             A:40 X:33 Y:89 P:67 SP:FE
D2F4  48        PHA                             A:40 X:33 Y:8A P:E5 SP:FE
D2F5  A9 3F     LDA #$3F                        A:40 X:33 Y:8A P:E5 SP:FD
D2F7  85 78     STA $78 = 40                    A:3F X:33 Y:8A P:65 SP:FD
D2F9  68        PLA                             A:3F X:33 Y:8A P:65 SP:FD
D2FA  20 9A F8  JSR $F89A = B8                  A:40 X:33 Y:8A P:65 SP:FE
F89A  B8        CLV                             A:40 X:33 Y:8A P:65 SP:FC
F89B  60        RTS                             A:40 X:33 Y:8A P:25 SP:FC
D2FD  C5 78     CMP $78 = 3F                    A:40 X:33 Y:8A P:25 SP:FE
D2FF  20 9C F8  JSR $F89C = F0                  A:40 X:33 Y:8A P:25 SP:FE
F89C  F0 07     BEQ $F8A5                       A:40 X:33 Y:8A P:25 SP:FC
F89E  30 05     BMI $F8A5                       A:40 X:33 Y:8A P:25 SP:FC
F8A0  90 03     BCC $F8A5                       A:40 X:33 Y:8A P:25 SP:FC
F8A2  70 01     BVS $F8A5                       A:40 X:33 Y:8A P:25 SP:FC
F8A4  60        RTS                             A:40 X:33 Y:8A P:25 SP:FC
D302  C8        INY                             A:40 X:33 Y:8A P:25 SP:FE
D303  48        PHA                             A:40 X:33 Y:8B P:A5 SP:FE
D304  A9 41     LDA #$41                        A:40 X:33 Y:8B P:A5 SP:FD
D306  85 78     STA $78 = 3F                    A:41 X:33 Y:8B P:25 SP:FD
D308  68        PLA                             A:41 X:33 Y:8B P:25 SP:FD
D309  C5 78     CMP $78 = 41                    A:40 X:33 Y:8B P:25 SP:FE
D30B  20 A8 F8  JSR $F8A8 = F0                  A:40 X:33 Y:8B P:A4 SP:FE
F8A8  F0 05     BEQ $F8AF                       A:40 X:33 Y:8B P:A4 SP:FC
F8AA  10 03     BPL $F8AF                       A:40 X:33 Y:8B P:A4 SP:FC
F8AC  10 01     BPL $F8AF                       A:40 X:33 Y:8B P:A4 SP:FC
F8AE  60        RTS                             A:40 X:33 Y:8B P:A4 SP:FC
D30E  C8        INY                             A:40 X:33 Y:8B P:A4 SP:FE
D30F  48        PHA                             A:40 X:33 Y:8C P:A4 SP:FE
D310  A9 00     LDA #$00                        A:40 X:33 Y:8C P:A4 SP:FD
D312  85 78     STA $78 = 41                    A:00 X:33 Y:8C P:26 SP:FD
D314  68        PLA                             A:00 X:33 Y:8C P:26 SP:FD
D315  20 B2 F8  JSR $F8B2 = A9                  A:40 X:33 Y:8C P:24 SP:FE
F8B2  A9 80     LDA #$80                        A:40 X:33 Y:8C P:24 SP:FC
F8B4  60        RTS                             A:80 X:33 Y:8C P:A4 SP:FC
D318  C5 78     CMP $78 = 00                    A:80 X:33 Y:8C P:A4 SP:FE
D31A  20 B5 F8  JSR $F8B5 = F0                  A:80 X:33 Y:8C P:A5 SP:FE
F8B5  F0 05     BEQ $F8BC                       A:80 X:33 Y:8C P:A5 SP:FC
F8B7  10 03     BPL $F8BC                       A:80 X:33 Y:8C P:A5 SP:FC
F8B9  90 01     BCC $F8BC                       A:80 X:33 Y:8C P:A5 SP:FC
F8BB  60        RTS                             A:80 X:33 Y:8C P:A5 SP:FC
D31D  C8        INY                             A:80 X:33 Y:8C P:A5 SP:FE
D31E  48        PHA                             A:80 X:33 Y:8D P:A5 SP:FE
D31F  A9 80     LDA #$80                        A:80 X:33 Y:8D P:A5 SP:FD
D321  85 78     STA $78 = 00                    A:80 X:33 Y:8D P:A5 SP:FD
D323  68        PLA                             A:80 X:33 Y:8D P:A5 SP:FD
D324  C5 78     CMP $78 = 80                    A:80 X:33 Y:8D P:A5 SP:FE
D326  20 BF F8  JSR $F8BF = D0                  A:80 X:33 Y:8D P:27 SP:FE
F8BF  D0 05     BNE $F8C6                       A:80 X:33 Y:8D P:27 SP:FC
F8C1  30 03     BMI $F8C6                       A:80 X:33 Y:8D P:27 SP:FC
F8C3  90 01     BCC $F8C6                       A:80 X:33 Y:8D P:27 SP:FC
F8C5  60        RTS                             A:80 X:33 Y:8D P:27 SP:FC
D329  C8        INY                             A:80 X:33 Y:8D P:27 SP:FE
D32A  48        PHA                             A:80 X:33 Y:8E P:A5 SP:FE
D32B  A9 81     LDA #$81                        A:80 X:33 Y:8E P:A5 SP:FD
D32D  85 78     STA $78 = 80                    A:81 X:33 Y:8E P:A5 SP:FD
D32F  68        PLA                             A:81 X:33 Y:8E P:A5 SP:FD
D330  C5 78     CMP $78 = 81                    A:80 X:33 Y:8E P:A5 SP:FE
D332  20 C9 F8  JSR $F8C9 = B0                  A:80 X:33 Y:8E P:A4 SP:FE
F8C9  B0 05     BCS $F8D0                       A:80 X:33 Y:8E P:A4 SP:FC
F8CB  F0 03     BEQ $F8D0                       A:80 X:33 Y:8E P:A4 SP:FC
F8CD  10 01     BPL $F8D0                       A:80 X:33 Y:8E P:A4 SP:FC
F8CF  60        RTS                             A:80 X:33 Y:8E P:A4 SP:FC
D335  C8        INY                             A:80 X:33 Y:8E P:A4 SP:FE
D336  48        PHA                             A:80 X:33 Y:8F P:A4 SP:FE
D337  A9 7F     LDA #$7F                        A:80 X:33 Y:8F P:A4 SP:FD
D339  85 78     STA $78 = 81                    A:7F X:33 Y:8F P:24 SP:FD
D33B  68        PLA                             A:7F X:33 Y:8F P:24 SP:FD
D33C  C5 78     CMP $78 = 7F                    A:80 X:33 Y:8F P:A4 SP:FE
D33E  20 D3 F8  JSR $F8D3 = 90                  A:80 X:33 Y:8F P:25 SP:FE
F8D3  90 05     BCC $F8DA                       A:80 X:33 Y:8F P:25 SP:FC
F8D5  F0 03     BEQ $F8DA                       A:80 X:33 Y:8F P:25 SP:FC
F8D7  30 01     BMI $F8DA                       A:80 X:33 Y:8F P:25 SP:FC
F8D9  60        RTS                             A:80 X:33 Y:8F P:25 SP:FC
D341  C8        INY                             A:80 X:33 Y:8F P:25 SP:FE
D342  A9 40     LDA #$40                        A:80 X:33 Y:90 P:A5 SP:FE
D344  85 78     STA $78 = 7F                    A:40 X:33 Y:90 P:25 SP:FE
D346  20 31 F9  JSR $F931 = 24                  A:40 X:33 Y:90 P:25 SP:FE
F931  24 01     BIT $01 = FF                    A:40 X:33 Y:90 P:25 SP:FC
F933  A9 40     LDA #$40                        A:40 X:33 Y:90 P:E5 SP:FC
F935  38        SEC                             A:40 X:33 Y:90 P:65 SP:FC
F936  60        RTS                             A:40 X:33 Y:90 P:65 SP:FC
D349  E5 78     SBC $78 = 40                    A:40 X:33 Y:90 P:65 SP:FE
D34B  20 37 F9  JSR $F937 = 30                  A:00 X:33 Y:90 P:27 SP:FE
F937  30 0B     BMI $F944                       A:00 X:33 Y:90 P:27 SP:FC
F939  90 09     BCC $F944                       A:00 X:33 Y:90 P:27 SP:FC
F93B  D0 07     BNE $F944                       A:00 X:33 Y:90 P:27 SP:FC
F93D  70 05     BVS $F944                       A:00 X:33 Y:90 P:27 SP:FC
F93F  C9 00     CMP #$00                        A:00 X:33 Y:90 P:27 SP:FC
F941  D0 01     BNE $F944                       A:00 X:33 Y:90 P:27 SP:FC
F943  60        RTS                             A:00 X:33 Y:90 P:27 SP:FC
D34E  C8        INY                             A:00 X:33 Y:90 P:27 SP:FE
D34F  A9 3F     LDA #$3F                        A:00 X:33 Y:91 P:A5 SP:FE
D351  85 78     STA $78 = 40                    A:3F X:33 Y:91 P:25 SP:FE
D353  20 47 F9  JSR $F947 = B8                  A:3F X:33 Y:91 P:25 SP:FE
F947  B8        CLV                             A:3F X:33 Y:91 P:25 SP:FC
F948  38        SEC                             A:3F X:33 Y:91 P:25 SP:FC
F949  A9 40     LDA #$40                        A:3F X:33 Y:91 P:25 SP:FC
F94B  60        RTS                             A:40 X:33 Y:91 P:25 SP:FC
D356  E5 78     SBC $78 = 3F                    A:40 X:33 Y:91 P:25 SP:FE
D358  20 4C F9  JSR $F94C = F0                  A:01 X:33 Y:91 P:25 SP:FE
F94C  F0 0B     BEQ $F959                       A:01 X:33 Y:91 P:25 SP:FC
F94E  30 09     BMI $F959                       A:01 X:33 Y:91 P:25 SP:FC
F950  90 07     BCC $F959                       A:01 X:33 Y:91 P:25 SP:FC
F952  70 05     BVS $F959                       A:01 X:33 Y:91 P:25 SP:FC
F954  C9 01     CMP #$01                        A:01 X:33 Y:91 P:25 SP:FC
F956  D0 01     BNE $F959                       A:01 X:33 Y:91 P:27 SP:FC
F958  60        RTS                             A:01 X:33 Y:91 P:27 SP:FC
D35B  C8        INY                             A:01 X:33 Y:91 P:27 SP:FE
D35C  A9 41     LDA #$41                        A:01 X:33 Y:92 P:A5 SP:FE
D35E  85 78     STA $78 = 3F                    A:41 X:33 Y:92 P:25 SP:FE
D360  20 5C F9  JSR $F95C = A9                  A:41 X:33 Y:92 P:25 SP:FE
F95C  A9 40     LDA #$40                        A:41 X:33 Y:92 P:25 SP:FC
F95E  38        SEC                             A:40 X:33 Y:92 P:25 SP:FC
F95F  24 01     BIT $01 = FF                    A:40 X:33 Y:92 P:25 SP:FC
F961  60        RTS                             A:40 X:33 Y:92 P:E5 SP:FC
D363  E5 78     SBC $78 = 41                    A:40 X:33 Y:92 P:E5 SP:FE
D365  20 62 F9  JSR $F962 = B0                  A:FF X:33 Y:92 P:A4 SP:FE
F962  B0 0B     BCS $F96F                       A:FF X:33 Y:92 P:A4 SP:FC
F964  F0 09     BEQ $F96F                       A:FF X:33 Y:92 P:A4 SP:FC
F966  10 07     BPL $F96F                       A:FF X:33 Y:92 P:A4 SP:FC
F968  70 05     BVS $F96F                       A:FF X:33 Y:92 P:A4 SP:FC
F96A  C9 FF     CMP #$FF                        A:FF X:33 Y:92 P:A4 SP:FC
F96C  D0 01     BNE $F96F                       A:FF X:33 Y:92 P:27 SP:FC
F96E  60        RTS                             A:FF X:33 Y:92 P:27 SP:FC
D368  C8        INY                             A:FF X:33 Y:92 P:27 SP:FE
D369  A9 00     LDA #$00                        A:FF X:33 Y:93 P:A5 SP:FE
D36B  85 78     STA $78 = 41                    A:00 X:33 Y:93 P:27 SP:FE
D36D  20 72 F9  JSR $F972 = 18                  A:00 X:33 Y:93 P:27 SP:FE
F972  18        CEC                             A:00 X:33 Y:93 P:27 SP:FC
F973  A9 80     LDA #$80                        A:00 X:33 Y:93 P:26 SP:FC
F975  60        RTS                             A:80 X:33 Y:93 P:A4 SP:FC
D370  E5 78     SBC $78 = 00                    A:80 X:33 Y:93 P:A4 SP:FE
D372  20 76 F9  JSR $F976 = 90                  A:7F X:33 Y:93 P:65 SP:FE
F976  90 05     BCC $F97D                       A:7F X:33 Y:93 P:65 SP:FC
F978  C9 7F     CMP #$7F                        A:7F X:33 Y:93 P:65 SP:FC
F97A  D0 01     BNE $F97D                       A:7F X:33 Y:93 P:67 SP:FC
F97C  60        RTS                             A:7F X:33 Y:93 P:67 SP:FC
D375  C8        INY                             A:7F X:33 Y:93 P:67 SP:FE
D376  A9 7F     LDA #$7F                        A:7F X:33 Y:94 P:E5 SP:FE
D378  85 78     STA $78 = 00                    A:7F X:33 Y:94 P:65 SP:FE
D37A  20 80 F9  JSR $F980 = 38                  A:7F X:33 Y:94 P:65 SP:FE
F980  38        SEC                             A:7F X:33 Y:94 P:65 SP:FC
F981  A9 81     LDA #$81                        A:7F X:33 Y:94 P:65 SP:FC
F983  60        RTS                             A:81 X:33 Y:94 P:E5 SP:FC
D37D  E5 78     SBC $78 = 7F                    A:81 X:33 Y:94 P:E5 SP:FE
D37F  20 84 F9  JSR $F984 = 50                  A:02 X:33 Y:94 P:65 SP:FE
F984  50 07     BVC $F98D                       A:02 X:33 Y:94 P:65 SP:FC
F986  90 05     BCC $F98D                       A:02 X:33 Y:94 P:65 SP:FC
F988  C9 02     CMP #$02                        A:02 X:33 Y:94 P:65 SP:FC
F98A  D0 01     BNE $F98D                       A:02 X:33 Y:94 P:67 SP:FC
F98C  60        RTS                             A:02 X:33 Y:94 P:67 SP:FC
D382  C8        INY                             A:02 X:33 Y:94 P:67 SP:FE
D383  A9 40     LDA #$40                        A:02 X:33 Y:95 P:E5 SP:FE
D385  85 78     STA $78 = 7F                    A:40 X:33 Y:95 P:65 SP:FE
D387  20 89 F8  JSR $F889 = 24                  A:40 X:33 Y:95 P:65 SP:FE
F889  24 01     BIT $01 = FF                    A:40 X:33 Y:95 P:65 SP:FC
F88B  A9 40     LDA #$40                        A:40 X:33 Y:95 P:E5 SP:FC
F88D  60        RTS                             A:40 X:33 Y:95 P:65 SP:FC
D38A  AA        TAX                             A:40 X:33 Y:95 P:65 SP:FE
D38B  E4 78     CPX $78 = 40                    A:40 X:40 Y:95 P:65 SP:FE
D38D  20 8E F8  JSR $F88E = 30                  A:40 X:40 Y:95 P:67 SP:FE
F88E  30 07     BMI $F897                       A:40 X:40 Y:95 P:67 SP:FC
F890  90 05     BCC $F897                       A:40 X:40 Y:95 P:67 SP:FC
F892  D0 03     BNE $F897                       A:40 X:40 Y:95 P:67 SP:FC
F894  50 01     BVC $F897                       A:40 X:40 Y:95 P:67 SP:FC
F896  60        RTS                             A:40 X:40 Y:95 P:67 SP:FC
D390  C8        INY                             A:40 X:40 Y:95 P:67 SP:FE
D391  A9 3F     LDA #$3F                        A:40 X:40 Y:96 P:E5 SP:FE
D393  85 78     STA $78 = 40                    A:3F X:40 Y:96 P:65 SP:FE
D395  20 9A F8  JSR $F89A = B8                  A:3F X:40 Y:96 P:65 SP:FE
F89A  B8        CLV                             A:3F X:40 Y:96 P:65 SP:FC
F89B  60        RTS                             A:3F X:40 Y:96 P:25 SP:FC
D398  E4 78     CPX $78 = 3F                    A:3F X:40 Y:96 P:25 SP:FE
D39A  20 9C F8  JSR $F89C = F0                  A:3F X:40 Y:96 P:25 SP:FE
F89C  F0 07     BEQ $F8A5                       A:3F X:40 Y:96 P:25 SP:FC
F89E  30 05     BMI $F8A5                       A:3F X:40 Y:96 P:25 SP:FC
F8A0  90 03     BCC $F8A5                       A:3F X:40 Y:96 P:25 SP:FC
F8A2  70 01     BVS $F8A5                       A:3F X:40 Y:96 P:25 SP:FC
F8A4  60        RTS                             A:3F X:40 Y:96 P:25 SP:FC
D39D  C8        INY                             A:3F X:40 Y:96 P:25 SP:FE
D39E  A9 41     LDA #$41                        A:3F X:40 Y:97 P:A5 SP:FE
D3A0  85 78     STA $78 = 3F                    A:41 X:40 Y:97 P:25 SP:FE
D3A2  E4 78     CPX $78 = 41                    A:41 X:40 Y:97 P:25 SP:FE
D3A4  20 A8 F8  JSR $F8A8 = F0                  A:41 X:40 Y:97 P:A4 SP:FE
F8A8  F0 05     BEQ $F8AF                       A:41 X:40 Y:97 P:A4 SP:FC
F8AA  10 03     BPL $F8AF                       A:41 X:40 Y:97 P:A4 SP:FC
F8AC  10 01     BPL $F8AF                       A:41 X:40 Y:97 P:A4 SP:FC
F8AE  60        RTS                             A:41 X:40 Y:97 P:A4 SP:FC
D3A7  C8        INY                             A:41 X:40 Y:97 P:A4 SP:FE
D3A8  A9 00     LDA #$00                        A:41 X:40 Y:98 P:A4 SP:FE
D3AA  85 78     STA $78 = 41                    A:00 X:40 Y:98 P:26 SP:FE
D3AC  20 B2 F8  JSR $F8B2 = A9                  A:00 X:40 Y:98 P:26 SP:FE
F8B2  A9 80     LDA #$80                        A:00 X:40 Y:98 P:26 SP:FC
F8B4  60        RTS                             A:80 X:40 Y:98 P:A4 SP:FC
D3AF  AA        TAX                             A:80 X:40 Y:98 P:A4 SP:FE
D3B0  E4 78     CPX $78 = 00                    A:80 X:80 Y:98 P:A4 SP:FE
D3B2  20 B5 F8  JSR $F8B5 = F0                  A:80 X:80 Y:98 P:A5 SP:FE
F8B5  F0 05     BEQ $F8BC                       A:80 X:80 Y:98 P:A5 SP:FC
F8B7  10 03     BPL $F8BC                       A:80 X:80 Y:98 P:A5 SP:FC
F8B9  90 01     BCC $F8BC                       A:80 X:80 Y:98 P:A5 SP:FC
F8BB  60        RTS                             A:80 X:80 Y:98 P:A5 SP:FC
D3B5  C8        INY                             A:80 X:80 Y:98 P:A5 SP:FE
D3B6  A9 80     LDA #$80                        A:80 X:80 Y:99 P:A5 SP:FE
D3B8  85 78     STA $78 = 00                    A:80 X:80 Y:99 P:A5 SP:FE
D3BA  E4 78     CPX $78 = 80                    A:80 X:80 Y:99 P:A5 SP:FE
D3BC  20 BF F8  JSR $F8BF = D0                  A:80 X:80 Y:99 P:27 SP:FE
F8BF  D0 05     BNE $F8C6                       A:80 X:80 Y:99 P:27 SP:FC
F8C1  30 03     BMI $F8C6                       A:80 X:80 Y:99 P:27 SP:FC
F8C3  90 01     BCC $F8C6                       A:80 X:80 Y:99 P:27 SP:FC
F8C5  60        RTS                             A:80 X:80 Y:99 P:27 SP:FC
D3BF  C8        INY                             A:80 X:80 Y:99 P:27 SP:FE
D3C0  A9 81     LDA #$81                        A:80 X:80 Y:9A P:A5 SP:FE
D3C2  85 78     STA $78 = 80                    A:81 X:80 Y:9A P:A5 SP:FE
D3C4  E4 78     CPX $78 = 81                    A:81 X:80 Y:9A P:A5 SP:FE
D3C6  20 C9 F8  JSR $F8C9 = B0                  A:81 X:80 Y:9A P:A4 SP:FE
F8C9  B0 05     BCS $F8D0                       A:81 X:80 Y:9A P:A4 SP:FC
F8CB  F0 03     BEQ $F8D0                       A:81 X:80 Y:9A P:A4 SP:FC
F8CD  10 01     BPL $F8D0                       A:81 X:80 Y:9A P:A4 SP:FC
F8CF  60        RTS                             A:81 X:80 Y:9A P:A4 SP:FC
D3C9  C8        INY                             A:81 X:80 Y:9A P:A4 SP:FE
D3CA  A9 7F     LDA #$7F                        A:81 X:80 Y:9B P:A4 SP:FE
D3CC  85 78     STA $78 = 81                    A:7F X:80 Y:9B P:24 SP:FE
D3CE  E4 78     CPX $78 = 7F                    A:7F X:80 Y:9B P:24 SP:FE
D3D0  20 D3 F8  JSR $F8D3 = 90                  A:7F X:80 Y:9B P:25 SP:FE
F8D3  90 05     BCC $F8DA                       A:7F X:80 Y:9B P:25 SP:FC
F8D5  F0 03     BEQ $F8DA                       A:7F X:80 Y:9B P:25 SP:FC
F8D7  30 01     BMI $F8DA                       A:7F X:80 Y:9B P:25 SP:FC
F8D9  60        RTS                             A:7F X:80 Y:9B P:25 SP:FC
D3D3  C8        INY                             A:7F X:80 Y:9B P:25 SP:FE
D3D4  98        TYA                             A:7F X:80 Y:9C P:A5 SP:FE
D3D5  AA        TAX                             A:9C X:80 Y:9C P:A5 SP:FE
D3D6  A9 40     LDA #$40                        A:9C X:9C Y:9C P:A5 SP:FE
D3D8  85 78     STA $78 = 7F                    A:40 X:9C Y:9C P:25 SP:FE
D3DA  20 DD F8  JSR $F8DD = 24                  A:40 X:9C Y:9C P:25 SP:FE
F8DD  24 01     BIT $01 = FF                    A:40 X:9C Y:9C P:25 SP:FC
F8DF  A0 40     LDY #$40                        A:40 X:9C Y:9C P:E5 SP:FC
F8E1  60        RTS                             A:40 X:9C Y:40 P:65 SP:FC
D3DD  C4 78     CPY $78 = 40                    A:40 X:9C Y:40 P:65 SP:FE
D3DF  20 E2 F8  JSR $F8E2 = 30                  A:40 X:9C Y:40 P:67 SP:FE
F8E2  30 07     BMI $F8EB                       A:40 X:9C Y:40 P:67 SP:FC
F8E4  90 05     BCC $F8EB                       A:40 X:9C Y:40 P:67 SP:FC
F8E6  D0 03     BNE $F8EB                       A:40 X:9C Y:40 P:67 SP:FC
F8E8  50 01     BVC $F8EB                       A:40 X:9C Y:40 P:67 SP:FC
F8EA  60        RTS                             A:40 X:9C Y:40 P:67 SP:FC
D3E2  E8        INX                             A:40 X:9C Y:40 P:67 SP:FE
D3E3  A9 3F     LDA #$3F                        A:40 X:9D Y:40 P:E5 SP:FE
D3E5  85 78     STA $78 = 40                    A:3F X:9D Y:40 P:65 SP:FE
D3E7  20 EE F8  JSR $F8EE = B8                  A:3F X:9D Y:40 P:65 SP:FE
F8EE  B8        CLV                             A:3F X:9D Y:40 P:65 SP:FC
F8EF  60        RTS                             A:3F X:9D Y:40 P:25 SP:FC
D3EA  C4 78     CPY $78 = 3F                    A:3F X:9D Y:40 P:25 SP:FE
D3EC  20 F0 F8  JSR $F8F0 = F0                  A:3F X:9D Y:40 P:25 SP:FE
F8F0  F0 07     BEQ $F8F9                       A:3F X:9D Y:40 P:25 SP:FC
F8F2  30 05     BMI $F8F9                       A:3F X:9D Y:40 P:25 SP:FC
F8F4  90 03     BCC $F8F9                       A:3F X:9D Y:40 P:25 SP:FC
F8F6  70 01     BVS $F8F9                       A:3F X:9D Y:40 P:25 SP:FC
F8F8  60        RTS                             A:3F X:9D Y:40 P:25 SP:FC
D3EF  E8        INX                             A:3F X:9D Y:40 P:25 SP:FE
D3F0  A9 41     LDA #$41                        A:3F X:9E Y:40 P:A5 SP:FE
D3F2  85 78     STA $78 = 3F                    A:41 X:9E Y:40 P:25 SP:FE
D3F4  C4 78     CPY $78 = 41                    A:41 X:9E Y:40 P:25 SP:FE
D3F6  20 FC F8  JSR $F8FC = F0                  A:41 X:9E Y:40 P:A4 SP:FE
F8FC  F0 05     BEQ $F903                       A:41 X:9E Y:40 P:A4 SP:FC
F8FE  10 03     BPL $F903                       A:41 X:9E Y:40 P:A4 SP:FC
F900  10 01     BPL $F903                       A:41 X:9E Y:40 P:A4 SP:FC
F902  60        RTS                             A:41 X:9E Y:40 P:A4 SP:FC
D3F9  E8        INX                             A:41 X:9E Y:40 P:A4 SP:FE
D3FA  A9 00     LDA #$00                        A:41 X:9F Y:40 P:A4 SP:FE
D3FC  85 78     STA $78 = 41                    A:00 X:9F Y:40 P:26 SP:FE
D3FE  20 06 F9  JSR $F906 = A0                  A:00 X:9F Y:40 P:26 SP:FE
F906  A0 80     LDY #$80                        A:00 X:9F Y:40 P:26 SP:FC
F908  60        RTS                             A:00 X:9F Y:80 P:A4 SP:FC
D401  C4 78     CPY $78 = 00                    A:00 X:9F Y:80 P:A4 SP:FE
D403  20 09 F9  JSR $F909 = F0                  A:00 X:9F Y:80 P:A5 SP:FE
F909  F0 05     BEQ $F910                       A:00 X:9F Y:80 P:A5 SP:FC
F90B  10 03     BPL $F910                       A:00 X:9F Y:80 P:A5 SP:FC
F90D  90 01     BCC $F910                       A:00 X:9F Y:80 P:A5 SP:FC
F90F  60        RTS                             A:00 X:9F Y:80 P:A5 SP:FC
D406  E8        INX                             A:00 X:9F Y:80 P:A5 SP:FE
D407  A9 80     LDA #$80                        A:00 X:A0 Y:80 P:A5 SP:FE
D409  85 78     STA $78 = 00                    A:80 X:A0 Y:80 P:A5 SP:FE
D40B  C4 78     CPY $78 = 80                    A:80 X:A0 Y:80 P:A5 SP:FE
D40D  20 13 F9  JSR $F913 = D0                  A:80 X:A0 Y:80 P:27 SP:FE
F913  D0 05     BNE $F91A                       A:80 X:A0 Y:80 P:27 SP:FC
F915  30 03     BMI $F91A                       A:80 X:A0 Y:80 P:27 SP:FC
F917  90 01     BCC $F91A                       A:80 X:A0 Y:80 P:27 SP:FC
F919  60        RTS                             A:80 X:A0 Y:80 P:27 SP:FC
D410  E8        INX                             A:80 X:A0 Y:80 P:27 SP:FE
D411  A9 81     LDA #$81                        A:80 X:A1 Y:80 P:A5 SP:FE
D413  85 78     STA $78 = 80                    A:81 X:A1 Y:80 P:A5 SP:FE
D415  C4 78     CPY $78 = 81                    A:81 X:A1 Y:80 P:A5 SP:FE
D417  20 1D F9  JSR $F91D = B0                  A:81 X:A1 Y:80 P:A4 SP:FE
F91D  B0 05     BCS $F924                       A:81 X:A1 Y:80 P:A4 SP:FC
F91F  F0 03     BEQ $F924                       A:81 X:A1 Y:80 P:A4 SP:FC
F921  10 01     BPL $F924                       A:81 X:A1 Y:80 P:A4 SP:FC
F923  60        RTS                             A:81 X:A1 Y:80 P:A4 SP:FC
D41A  E8        INX                             A:81 X:A1 Y:80 P:A4 SP:FE
D41B  A9 7F     LDA #$7F                        A:81 X:A2 Y:80 P:A4 SP:FE
D41D  85 78     STA $78 = 81                    A:7F X:A2 Y:80 P:24 SP:FE
D41F  C4 78     CPY $78 = 7F                    A:7F X:A2 Y:80 P:24 SP:FE
D421  20 27 F9  JSR $F927 = 90                  A:7F X:A2 Y:80 P:25 SP:FE
F927  90 05     BCC $F92E                       A:7F X:A2 Y:80 P:25 SP:FC
F929  F0 03     BEQ $F92E                       A:7F X:A2 Y:80 P:25 SP:FC
F92B  30 01     BMI $F92E                       A:7F X:A2 Y:80 P:25 SP:FC
F92D  60        RTS                             A:7F X:A2 Y:80 P:25 SP:FC
D424  E8        INX                             A:7F X:A2 Y:80 P:25 SP:FE
D425  8A        TXA                             A:7F X:A3 Y:80 P:A5 SP:FE
D426  A8        TAY                             A:A3 X:A3 Y:80 P:A5 SP:FE
D427  20 90 F9  JSR $F990 = A2                  A:A3 X:A3 Y:A3 P:A5 SP:FE
F990  A2 55     LDX #$55                        A:A3 X:A3 Y:A3 P:A5 SP:FC
F992  A9 FF     LDA #$FF                        A:A3 X:55 Y:A3 P:25 SP:FC
F994  85 01     STA $01 = FF                    A:FF X:55 Y:A3 P:A5 SP:FC
F996  EA        NOP                             A:FF X:55 Y:A3 P:A5 SP:FC
F997  24 01     BIT $01 = FF                    A:FF X:55 Y:A3 P:A5 SP:FC
F999  38        SEC                             A:FF X:55 Y:A3 P:E5 SP:FC
F99A  A9 01     LDA #$01                        A:FF X:55 Y:A3 P:E5 SP:FC
F99C  60        RTS                             A:01 X:55 Y:A3 P:65 SP:FC
D42A  85 78     STA $78 = 7F                    A:01 X:55 Y:A3 P:65 SP:FE
D42C  46 78     LSR $78 = 01                    A:01 X:55 Y:A3 P:65 SP:FE
D42E  A5 78     LDA $78 = 00                    A:01 X:55 Y:A3 P:67 SP:FE
D430  20 9D F9  JSR $F99D = 90                  A:00 X:55 Y:A3 P:67 SP:FE
F99D  90 1B     BCC $F9BA                       A:00 X:55 Y:A3 P:67 SP:FC
F99F  D0 19     BNE $F9BA                       A:00 X:55 Y:A3 P:67 SP:FC
F9A1  30 17     BMI $F9BA                       A:00 X:55 Y:A3 P:67 SP:FC
F9A3  50 15     BVC $F9BA                       A:00 X:55 Y:A3 P:67 SP:FC
F9A5  C9 00     CMP #$00                        A:00 X:55 Y:A3 P:67 SP:FC
F9A7  D0 11     BNE $F9BA                       A:00 X:55 Y:A3 P:67 SP:FC
F9A9  B8        CLV                             A:00 X:55 Y:A3 P:67 SP:FC
F9AA  A9 AA     LDA #$AA                        A:00 X:55 Y:A3 P:27 SP:FC
F9AC  60        RTS                             A:AA X:55 Y:A3 P:A5 SP:FC
D433  C8        INY                             A:AA X:55 Y:A3 P:A5 SP:FE
D434  85 78     STA $78 = 00                    A:AA X:55 Y:A4 P:A5 SP:FE
D436  46 78     LSR $78 = AA                    A:AA X:55 Y:A4 P:A5 SP:FE
D438  A5 78     LDA $78 = 55                    A:AA X:55 Y:A4 P:24 SP:FE
D43A  20 AD F9  JSR $F9AD = B0                  A:55 X:55 Y:A4 P:24 SP:FE
F9AD  B0 0B     BCS $F9BA                       A:55 X:55 Y:A4 P:24 SP:FC
F9AF  F0 09     BEQ $F9BA                       A:55 X:55 Y:A4 P:24 SP:FC
F9B1  30 07     BMI $F9BA                       A:55 X:55 Y:A4 P:24 SP:FC
F9B3  70 05     BVS $F9BA                       A:55 X:55 Y:A4 P:24 SP:FC
F9B5  C9 55     CMP #$55                        A:55 X:55 Y:A4 P:24 SP:FC
F9B7  D0 01     BNE $F9BA                       A:55 X:55 Y:A4 P:27 SP:FC
F9B9  60        RTS                             A:55 X:55 Y:A4 P:27 SP:FC
D43D  C8        INY                             A:55 X:55 Y:A4 P:27 SP:FE
D43E  20 BD F9  JSR $F9BD = 24                  A:55 X:55 Y:A5 P:A5 SP:FE
F9BD  24 01     BIT $01 = FF                    A:55 X:55 Y:A5 P:A5 SP:FC
F9BF  38        SEC                             A:55 X:55 Y:A5 P:E5 SP:FC
F9C0  A9 80     LDA #$80                        A:55 X:55 Y:A5 P:E5 SP:FC
F9C2  60        RTS                             A:80 X:55 Y:A5 P:E5 SP:FC
D441  85 78     STA $78 = 55                    A:80 X:55 Y:A5 P:E5 SP:FE
D443  06 78     ASL $78 = 80                    A:80 X:55 Y:A5 P:E5 SP:FE
D445  A5 78     LDA $78 = 00                    A:80 X:55 Y:A5 P:67 SP:FE
D447  20 C3 F9  JSR $F9C3 = 90                  A:00 X:55 Y:A5 P:67 SP:FE
F9C3  90 1C     BCC $F9E1                       A:00 X:55 Y:A5 P:67 SP:FC
F9C5  D0 1A     BNE $F9E1                       A:00 X:55 Y:A5 P:67 SP:FC
F9C7  30 18     BMI $F9E1                       A:00 X:55 Y:A5 P:67 SP:FC
F9C9  50 16     BVC $F9E1                       A:00 X:55 Y:A5 P:67 SP:FC
F9CB  C9 00     CMP #$00                        A:00 X:55 Y:A5 P:67 SP:FC
F9CD  D0 12     BNE $F9E1                       A:00 X:55 Y:A5 P:67 SP:FC
F9CF  B8        CLV                             A:00 X:55 Y:A5 P:67 SP:FC
F9D0  A9 55     LDA #$55                        A:00 X:55 Y:A5 P:27 SP:FC
F9D2  38        SEC                             A:55 X:55 Y:A5 P:25 SP:FC
F9D3  60        RTS                             A:55 X:55 Y:A5 P:25 SP:FC
D44A  C8        INY                             A:55 X:55 Y:A5 P:25 SP:FE
D44B  85 78     STA $78 = 00                    A:55 X:55 Y:A6 P:A5 SP:FE
D44D  06 78     ASL $78 = 55                    A:55 X:55 Y:A6 P:A5 SP:FE
D44F  A5 78     LDA $78 = AA                    A:55 X:55 Y:A6 P:A4 SP:FE
D451  20 D4 F9  JSR $F9D4 = B0                  A:AA X:55 Y:A6 P:A4 SP:FE
F9D4  B0 0B     BCS $F9E1                       A:AA X:55 Y:A6 P:A4 SP:FC
F9D6  F0 09     BEQ $F9E1                       A:AA X:55 Y:A6 P:A4 SP:FC
F9D8  10 07     BPL $F9E1                       A:AA X:55 Y:A6 P:A4 SP:FC
F9DA  70 05     BVS $F9E1                       A:AA X:55 Y:A6 P:A4 SP:FC
F9DC  C9 AA     CMP #$AA                        A:AA X:55 Y:A6 P:A4 SP:FC
F9DE  D0 01     BNE $F9E1                       A:AA X:55 Y:A6 P:27 SP:FC
F9E0  60        RTS                             A:AA X:55 Y:A6 P:27 SP:FC
D454  C8        INY                             A:AA X:55 Y:A6 P:27 SP:FE
D455  20 E4 F9  JSR $F9E4 = 24                  A:AA X:55 Y:A7 P:A5 SP:FE
F9E4  24 01     BIT $01 = FF                    A:AA X:55 Y:A7 P:A5 SP:FC
F9E6  38        SEC                             A:AA X:55 Y:A7 P:E5 SP:FC
F9E7  A9 01     LDA #$01                        A:AA X:55 Y:A7 P:E5 SP:FC
F9E9  60        RTS                             A:01 X:55 Y:A7 P:65 SP:FC
D458  85 78     STA $78 = AA                    A:01 X:55 Y:A7 P:65 SP:FE
D45A  66 78     ROR $78 = 01                    A:01 X:55 Y:A7 P:65 SP:FE
D45C  A5 78     LDA $78 = 80                    A:01 X:55 Y:A7 P:E5 SP:FE
D45E  20 EA F9  JSR $F9EA = 90                  A:80 X:55 Y:A7 P:E5 SP:FE
F9EA  90 1C     BCC $FA08                       A:80 X:55 Y:A7 P:E5 SP:FC
F9EC  F0 1A     BEQ $FA08                       A:80 X:55 Y:A7 P:E5 SP:FC
F9EE  10 18     BPL $FA08                       A:80 X:55 Y:A7 P:E5 SP:FC
F9F0  50 16     BVC $FA08                       A:80 X:55 Y:A7 P:E5 SP:FC
F9F2  C9 80     CMP #$80                        A:80 X:55 Y:A7 P:E5 SP:FC
F9F4  D0 12     BNE $FA08                       A:80 X:55 Y:A7 P:67 SP:FC
F9F6  B8        CLV                             A:80 X:55 Y:A7 P:67 SP:FC
F9F7  18        CEC                             A:80 X:55 Y:A7 P:27 SP:FC
F9F8  A9 55     LDA #$55                        A:80 X:55 Y:A7 P:26 SP:FC
F9FA  60        RTS                             A:55 X:55 Y:A7 P:24 SP:FC
D461  C8        INY                             A:55 X:55 Y:A7 P:24 SP:FE
D462  85 78     STA $78 = 80                    A:55 X:55 Y:A8 P:A4 SP:FE
D464  66 78     ROR $78 = 55                    A:55 X:55 Y:A8 P:A4 SP:FE
D466  A5 78     LDA $78 = 2A                    A:55 X:55 Y:A8 P:25 SP:FE
D468  20 FB F9  JSR $F9FB = 90                  A:2A X:55 Y:A8 P:25 SP:FE
F9FB  90 0B     BCC $FA08                       A:2A X:55 Y:A8 P:25 SP:FC
F9FD  F0 09     BEQ $FA08                       A:2A X:55 Y:A8 P:25 SP:FC
F9FF  30 07     BMI $FA08                       A:2A X:55 Y:A8 P:25 SP:FC
FA01  70 05     BVS $FA08                       A:2A X:55 Y:A8 P:25 SP:FC
FA03  C9 2A     CMP #$2A                        A:2A X:55 Y:A8 P:25 SP:FC
FA05  D0 01     BNE $FA08                       A:2A X:55 Y:A8 P:27 SP:FC
FA07  60        RTS                             A:2A X:55 Y:A8 P:27 SP:FC
D46B  C8        INY                             A:2A X:55 Y:A8 P:27 SP:FE
D46C  20 0A FA  JSR $FA0A = 24                  A:2A X:55 Y:A9 P:A5 SP:FE
FA0A  24 01     BIT $01 = FF                    A:2A X:55 Y:A9 P:A5 SP:FC
FA0C  38        SEC                             A:2A X:55 Y:A9 P:E5 SP:FC
FA0D  A9 80     LDA #$80                        A:2A X:55 Y:A9 P:E5 SP:FC
FA0F  60        RTS                             A:80 X:55 Y:A9 P:E5 SP:FC
D46F  85 78     STA $78 = 2A                    A:80 X:55 Y:A9 P:E5 SP:FE
D471  26 78     ROL $78 = 80                    A:80 X:55 Y:A9 P:E5 SP:FE
D473  A5 78     LDA $78 = 01                    A:80 X:55 Y:A9 P:65 SP:FE
D475  20 10 FA  JSR $FA10 = 90                  A:01 X:55 Y:A9 P:65 SP:FE
FA10  90 1C     BCC $FA2E                       A:01 X:55 Y:A9 P:65 SP:FC
FA12  F0 1A     BEQ $FA2E                       A:01 X:55 Y:A9 P:65 SP:FC
FA14  30 18     BMI $FA2E                       A:01 X:55 Y:A9 P:65 SP:FC
FA16  50 16     BVC $FA2E                       A:01 X:55 Y:A9 P:65 SP:FC
FA18  C9 01     CMP #$01                        A:01 X:55 Y:A9 P:65 SP:FC
FA1A  D0 12     BNE $FA2E                       A:01 X:55 Y:A9 P:67 SP:FC
FA1C  B8        CLV                             A:01 X:55 Y:A9 P:67 SP:FC
FA1D  18        CEC                             A:01 X:55 Y:A9 P:27 SP:FC
FA1E  A9 55     LDA #$55                        A:01 X:55 Y:A9 P:26 SP:FC
FA20  60        RTS                             A:55 X:55 Y:A9 P:24 SP:FC
D478  C8        INY                             A:55 X:55 Y:A9 P:24 SP:FE
D479  85 78     STA $78 = 01                    A:55 X:55 Y:AA P:A4 SP:FE
D47B  26 78     ROL $78 = 55                    A:55 X:55 Y:AA P:A4 SP:FE
D47D  A5 78     LDA $78 = AA                    A:55 X:55 Y:AA P:A4 SP:FE
D47F  20 21 FA  JSR $FA21 = B0                  A:AA X:55 Y:AA P:A4 SP:FE
FA21  B0 0B     BCS $FA2E                       A:AA X:55 Y:AA P:A4 SP:FC
FA23  F0 09     BEQ $FA2E                       A:AA X:55 Y:AA P:A4 SP:FC
FA25  10 07     BPL $FA2E                       A:AA X:55 Y:AA P:A4 SP:FC
FA27  70 05     BVS $FA2E                       A:AA X:55 Y:AA P:A4 SP:FC
FA29  C9 AA     CMP #$AA                        A:AA X:55 Y:AA P:A4 SP:FC
FA2B  D0 01     BNE $FA2E                       A:AA X:55 Y:AA P:27 SP:FC
FA2D  60        RTS                             A:AA X:55 Y:AA P:27 SP:FC
D482  A9 FF     LDA #$FF                        A:AA X:55 Y:AA P:27 SP:FE
D484  85 78     STA $78 = AA                    A:FF X:55 Y:AA P:A5 SP:FE
D486  85 01     STA $01 = FF                    A:FF X:55 Y:AA P:A5 SP:FE
D488  24 01     BIT $01 = FF                    A:FF X:55 Y:AA P:A5 SP:FE
D48A  38        SEC                             A:FF X:55 Y:AA P:E5 SP:FE
D48B  E6 78     INC $78 = FF                    A:FF X:55 Y:AA P:E5 SP:FE
D48D  D0 0C     BNE $D49B                       A:FF X:55 Y:AA P:E5 SP:FE
D49B  A9 AB     LDA #$AB                        A:FF X:55 Y:AA P:E5 SP:FE
D49D  85 00     STA $00 = 00                    A:AB X:55 Y:AA P:E5 SP:FE
D49F  A9 7F     LDA #$7F                        A:AB X:55 Y:AA P:E5 SP:FE
D4A1  85 78     STA $78 = 00                    A:7F X:55 Y:AA P:65 SP:FE
D4A3  B8        CLV                             A:7F X:55 Y:AA P:65 SP:FE
D4A4  18        CEC                             A:7F X:55 Y:AA P:25 SP:FE
D4A5  E6 78     INC $78 = 7F                    A:7F X:55 Y:AA P:24 SP:FE
D4A7  F0 0C     BEQ $D4B5                       A:7F X:55 Y:AA P:24 SP:FE
D4A9  10 0A     BPL $D4B5                       A:7F X:55 Y:AA P:24 SP:FE
D4B5  A9 AC     LDA #$AC                        A:7F X:55 Y:AA P:24 SP:FE
D4B7  85 00     STA $00 = AB                    A:AC X:55 Y:AA P:A4 SP:FE
D4B9  A9 00     LDA #$00                        A:AC X:55 Y:AA P:A4 SP:FE
D4BB  85 78     STA $78 = 80                    A:00 X:55 Y:AA P:26 SP:FE
D4BD  24 01     BIT $01 = FF                    A:00 X:55 Y:AA P:26 SP:FE
D4BF  38        SEC                             A:00 X:55 Y:AA P:E6 SP:FE
D4C0  C6 78     DEC $78 = 00                    A:00 X:55 Y:AA P:E7 SP:FE
D4C2  F0 0C     BEQ $D4D0                       A:00 X:55 Y:AA P:67 SP:FE
D4D0  A9 AD     LDA #$AD                        A:00 X:55 Y:AA P:67 SP:FE
D4D2  85 00     STA $00 = AC                    A:AD X:55 Y:AA P:E5 SP:FE
D4D4  A9 80     LDA #$80                        A:AD X:55 Y:AA P:E5 SP:FE
D4D6  85 78     STA $78 = FF                    A:80 X:55 Y:AA P:E5 SP:FE
D4D8  B8        CLV                             A:80 X:55 Y:AA P:E5 SP:FE
D4D9  18        CEC                             A:80 X:55 Y:AA P:A5 SP:FE
D4DA  C6 78     DEC $78 = 80                    A:80 X:55 Y:AA P:A4 SP:FE
D4DC  F0 0C     BEQ $D4EA                       A:80 X:55 Y:AA P:A4 SP:FE
D4DE  30 0A     BMI $D4EA                       A:80 X:55 Y:AA P:A4 SP:FE
D4EA  A9 AE     LDA #$AE                        A:80 X:55 Y:AA P:A4 SP:FE
D4EC  85 00     STA $00 = AD                    A:AE X:55 Y:AA P:A4 SP:FE
D4EE  A9 01     LDA #$01                        A:AE X:55 Y:AA P:A4 SP:FE
D4F0  85 78     STA $78 = 7F                    A:01 X:55 Y:AA P:24 SP:FE
D4F2  C6 78     DEC $78 = 01                    A:01 X:55 Y:AA P:24 SP:FE
D4F4  F0 04     BEQ $D4FA                       A:01 X:55 Y:AA P:24 SP:FE
D4F6  A9 AF     LDA #$AF                        A:01 X:55 Y:AA P:24 SP:FE
D4F8  85 00     STA $00 = AE                    A:AF X:55 Y:AA P:A4 SP:FE
D4FA  60        RTS                             A:AF X:55 Y:AA P:A4 SP:FE
C615  20 FB D4  JSR $D4FB = A9                  A:AF X:55 Y:AA P:A4 SP:00
D4FB  A9 55     LDA #$55                        A:AF X:55 Y:AA P:A4 SP:FE
D4FD  8D 78 06  STA $0678 = 00                  A:55 X:55 Y:AA P:24 SP:FE
D500  A9 FF     LDA #$FF                        A:55 X:55 Y:AA P:24 SP:FE
D502  85 01     STA $01 = FF                    A:FF X:55 Y:AA P:A4 SP:FE
D504  24 01     BIT $01 = FF                    A:FF X:55 Y:AA P:A4 SP:FE
D506  A0 11     LDY #$11                        A:FF X:55 Y:AA P:E4 SP:FE
D508  A2 23     LDX #$23                        A:FF X:55 Y:11 P:64 SP:FE
D50A  A9 00     LDA #$00                        A:FF X:23 Y:11 P:64 SP:FE
D50C  AD 78 06  LDA $0678 = 55                  A:00 X:23 Y:11 P:66 SP:FE
D50F  F0 10     BEQ $D521                       A:55 X:23 Y:11 P:64 SP:FE
D511  30 0E     BMI $D521                       A:55 X:23 Y:11 P:64 SP:FE
D513  C9 55     CMP #$55                        A:55 X:23 Y:11 P:64 SP:FE
D515  D0 0A     BNE $D521                       A:55 X:23 Y:11 P:67 SP:FE
D517  C0 11     CPY #$11                        A:55 X:23 Y:11 P:67 SP:FE
D519  D0 06     BNE $D521                       A:55 X:23 Y:11 P:67 SP:FE
D51B  E0 23     CPX #$23                        A:55 X:23 Y:11 P:67 SP:FE
D51D  50 02     BVC $D521                       A:55 X:23 Y:11 P:67 SP:FE
D51F  F0 04     BEQ $D525                       A:55 X:23 Y:11 P:67 SP:FE
D525  A9 46     LDA #$46                        A:55 X:23 Y:11 P:67 SP:FE
D527  24 01     BIT $01 = FF                    A:46 X:23 Y:11 P:65 SP:FE
D529  8D 78 06  STA $0678 = 55                  A:46 X:23 Y:11 P:E5 SP:FE
D52C  F0 0B     BEQ $D539                       A:46 X:23 Y:11 P:E5 SP:FE
D52E  10 09     BPL $D539                       A:46 X:23 Y:11 P:E5 SP:FE
D530  50 07     BVC $D539                       A:46 X:23 Y:11 P:E5 SP:FE
D532  AD 78 06  LDA $0678 = 46                  A:46 X:23 Y:11 P:E5 SP:FE
D535  C9 46     CMP #$46                        A:46 X:23 Y:11 P:65 SP:FE
D537  F0 04     BEQ $D53D                       A:46 X:23 Y:11 P:67 SP:FE
D53D  A9 55     LDA #$55                        A:46 X:23 Y:11 P:67 SP:FE
D53F  8D 78 06  STA $0678 = 46                  A:55 X:23 Y:11 P:65 SP:FE
D542  24 01     BIT $01 = FF                    A:55 X:23 Y:11 P:65 SP:FE
D544  A9 11     LDA #$11                        A:55 X:23 Y:11 P:E5 SP:FE
D546  A2 23     LDX #$23                        A:11 X:23 Y:11 P:65 SP:FE
D548  A0 00     LDY #$00                        A:11 X:23 Y:11 P:65 SP:FE
D54A  AC 78 06  LDY $0678 = 55                  A:11 X:23 Y:00 P:67 SP:FE
D54D  F0 10     BEQ $D55F                       A:11 X:23 Y:55 P:65 SP:FE
D54F  30 0E     BMI $D55F                       A:11 X:23 Y:55 P:65 SP:FE
D551  C0 55     CPY #$55                        A:11 X:23 Y:55 P:65 SP:FE
D553  D0 0A     BNE $D55F                       A:11 X:23 Y:55 P:67 SP:FE
D555  C9 11     CMP #$11                        A:11 X:23 Y:55 P:67 SP:FE
D557  D0 06     BNE $D55F                       A:11 X:23 Y:55 P:67 SP:FE
D559  E0 23     CPX #$23                        A:11 X:23 Y:55 P:67 SP:FE
D55B  50 02     BVC $D55F                       A:11 X:23 Y:55 P:67 SP:FE
D55D  F0 04     BEQ $D563                       A:11 X:23 Y:55 P:67 SP:FE
D563  A0 46     LDY #$46                        A:11 X:23 Y:55 P:67 SP:FE
D565  24 01     BIT $01 = FF                    A:11 X:23 Y:46 P:65 SP:FE
D567  8C 78 06  STY $0678 = 55                  A:11 X:23 Y:46 P:E5 SP:FE
D56A  F0 0B     BEQ $D577                       A:11 X:23 Y:46 P:E5 SP:FE
D56C  10 09     BPL $D577                       A:11 X:23 Y:46 P:E5 SP:FE
D56E  50 07     BVC $D577                       A:11 X:23 Y:46 P:E5 SP:FE
D570  AC 78 06  LDY $0678 = 46                  A:11 X:23 Y:46 P:E5 SP:FE
D573  C0 46     CPY #$46                        A:11 X:23 Y:46 P:65 SP:FE
D575  F0 04     BEQ $D57B                       A:11 X:23 Y:46 P:67 SP:FE
D57B  24 01     BIT $01 = FF                    A:11 X:23 Y:46 P:67 SP:FE
D57D  A9 55     LDA #$55                        A:11 X:23 Y:46 P:E5 SP:FE
D57F  8D 78 06  STA $0678 = 46                  A:55 X:23 Y:46 P:65 SP:FE
D582  A0 11     LDY #$11                        A:55 X:23 Y:46 P:65 SP:FE
D584  A9 23     LDA #$23                        A:55 X:23 Y:11 P:65 SP:FE
D586  A2 00     LDX #$00                        A:23 X:23 Y:11 P:65 SP:FE
D588  AE 78 06  LDX $0678 = 55                  A:23 X:00 Y:11 P:67 SP:FE
D58B  F0 10     BEQ $D59D                       A:23 X:55 Y:11 P:65 SP:FE
D58D  30 0E     BMI $D59D                       A:23 X:55 Y:11 P:65 SP:FE
D58F  E0 55     CPX #$55                        A:23 X:55 Y:11 P:65 SP:FE
D591  D0 0A     BNE $D59D                       A:23 X:55 Y:11 P:67 SP:FE
D593  C0 11     CPY #$11                        A:23 X:55 Y:11 P:67 SP:FE
D595  D0 06     BNE $D59D                       A:23 X:55 Y:11 P:67 SP:FE
D597  C9 23     CMP #$23                        A:23 X:55 Y:11 P:67 SP:FE
D599  50 02     BVC $D59D                       A:23 X:55 Y:11 P:67 SP:FE
D59B  F0 04     BEQ $D5A1                       A:23 X:55 Y:11 P:67 SP:FE
D5A1  A2 46     LDX #$46                        A:23 X:55 Y:11 P:67 SP:FE
D5A3  24 01     BIT $01 = FF                    A:23 X:46 Y:11 P:65 SP:FE
D5A5  8E 78 06  STX $0678 = 55                  A:23 X:46 Y:11 P:E5 SP:FE
D5A8  F0 0B     BEQ $D5B5                       A:23 X:46 Y:11 P:E5 SP:FE
D5AA  10 09     BPL $D5B5                       A:23 X:46 Y:11 P:E5 SP:FE
D5AC  50 07     BVC $D5B5                       A:23 X:46 Y:11 P:E5 SP:FE
D5AE  AE 78 06  LDX $0678 = 46                  A:23 X:46 Y:11 P:E5 SP:FE
D5B1  E0 46     CPX #$46                        A:23 X:46 Y:11 P:65 SP:FE
D5B3  F0 04     BEQ $D5B9                       A:23 X:46 Y:11 P:67 SP:FE
D5B9  A9 C0     LDA #$C0                        A:23 X:46 Y:11 P:67 SP:FE
D5BB  8D 78 06  STA $0678 = 46                  A:C0 X:46 Y:11 P:E5 SP:FE
D5BE  A2 33     LDX #$33                        A:C0 X:46 Y:11 P:E5 SP:FE
D5C0  A0 88     LDY #$88                        A:C0 X:33 Y:11 P:65 SP:FE
D5C2  A9 05     LDA #$05                        A:C0 X:33 Y:88 P:E5 SP:FE
D5C4  2C 78 06  BIT $0678 = C0                  A:05 X:33 Y:88 P:65 SP:FE
D5C7  10 10     BPL $D5D9                       A:05 X:33 Y:88 P:E7 SP:FE
D5C9  50 0E     BVC $D5D9                       A:05 X:33 Y:88 P:E7 SP:FE
D5CB  D0 0C     BNE $D5D9                       A:05 X:33 Y:88 P:E7 SP:FE
D5CD  C9 05     CMP #$05                        A:05 X:33 Y:88 P:E7 SP:FE
D5CF  D0 08     BNE $D5D9                       A:05 X:33 Y:88 P:67 SP:FE
D5D1  E0 33     CPX #$33                        A:05 X:33 Y:88 P:67 SP:FE
D5D3  D0 04     BNE $D5D9                       A:05 X:33 Y:88 P:67 SP:FE
D5D5  C0 88     CPY #$88                        A:05 X:33 Y:88 P:67 SP:FE
D5D7  F0 04     BEQ $D5DD                       A:05 X:33 Y:88 P:67 SP:FE
D5DD  A9 03     LDA #$03                        A:05 X:33 Y:88 P:67 SP:FE
D5DF  8D 78 06  STA $0678 = C0                  A:03 X:33 Y:88 P:65 SP:FE
D5E2  A9 01     LDA #$01                        A:03 X:33 Y:88 P:65 SP:FE
D5E4  2C 78 06  BIT $0678 = 03                  A:01 X:33 Y:88 P:65 SP:FE
D5E7  30 08     BMI $D5F1                       A:01 X:33 Y:88 P:25 SP:FE
D5E9  70 06     BVS $D5F1                       A:01 X:33 Y:88 P:25 SP:FE
D5EB  F0 04     BEQ $D5F1                       A:01 X:33 Y:88 P:25 SP:FE
D5ED  C9 01     CMP #$01                        A:01 X:33 Y:88 P:25 SP:FE
D5EF  F0 04     BEQ $D5F5                       A:01 X:33 Y:88 P:27 SP:FE
D5F5  A0 B8     LDY #$B8                        A:01 X:33 Y:88 P:27 SP:FE
D5F7  A9 AA     LDA #$AA                        A:01 X:33 Y:B8 P:A5 SP:FE
D5F9  8D 78 06  STA $0678 = 03                  A:AA X:33 Y:B8 P:A5 SP:FE
D5FC  20 B6 F7  JSR $F7B6 = 18                  A:AA X:33 Y:B8 P:A5 SP:FE
F7B6  18        CEC                             A:AA X:33 Y:B8 P:A5 SP:FC
F7B7  A9 FF     LDA #$FF                        A:AA X:33 Y:B8 P:A4 SP:FC
F7B9  85 01     STA $01 = FF                    A:FF X:33 Y:B8 P:A4 SP:FC
F7BB  24 01     BIT $01 = FF                    A:FF X:33 Y:B8 P:A4 SP:FC
F7BD  A9 55     LDA #$55                        A:FF X:33 Y:B8 P:E4 SP:FC
F7BF  60        RTS                             A:55 X:33 Y:B8 P:64 SP:FC
D5FF  0D 78 06  ORA $0678 = AA                  A:55 X:33 Y:B8 P:64 SP:FE
D602  20 C0 F7  JSR $F7C0 = B0                  A:FF X:33 Y:B8 P:E4 SP:FE
F7C0  B0 09     BCS $F7CB                       A:FF X:33 Y:B8 P:E4 SP:FC
F7C2  10 07     BPL $F7CB                       A:FF X:33 Y:B8 P:E4 SP:FC
F7C4  C9 FF     CMP #$FF                        A:FF X:33 Y:B8 P:E4 SP:FC
F7C6  D0 03     BNE $F7CB                       A:FF X:33 Y:B8 P:67 SP:FC
F7C8  50 01     BVC $F7CB                       A:FF X:33 Y:B8 P:67 SP:FC
F7CA  60        RTS                             A:FF X:33 Y:B8 P:67 SP:FC
D605  C8        INY                             A:FF X:33 Y:B8 P:67 SP:FE
D606  A9 00     LDA #$00                        A:FF X:33 Y:B9 P:E5 SP:FE
D608  8D 78 06  STA $0678 = AA                  A:00 X:33 Y:B9 P:67 SP:FE
D60B  20 CE F7  JSR $F7CE = 38                  A:00 X:33 Y:B9 P:67 SP:FE
F7CE  38        SEC                             A:00 X:33 Y:B9 P:67 SP:FC
F7CF  B8        CLV                             A:00 X:33 Y:B9 P:67 SP:FC
F7D0  A9 00     LDA #$00                        A:00 X:33 Y:B9 P:27 SP:FC
F7D2  60        RTS                             A:00 X:33 Y:B9 P:27 SP:FC
D60E  0D 78 06  ORA $0678 = 00                  A:00 X:33 Y:B9 P:27 SP:FE
D611  20 D3 F7  JSR $F7D3 = D0                  A:00 X:33 Y:B9 P:27 SP:FE
F7D3  D0 07     BNE $F7DC                       A:00 X:33 Y:B9 P:27 SP:FC
F7D5  70 05     BVS $F7DC                       A:00 X:33 Y:B9 P:27 SP:FC
F7D7  90 03     BCC $F7DC                       A:00 X:33 Y:B9 P:27 SP:FC
F7D9  30 01     BMI $F7DC                       A:00 X:33 Y:B9 P:27 SP:FC
F7DB  60        RTS                             A:00 X:33 Y:B9 P:27 SP:FC
D614  C8        INY                             A:00 X:33 Y:B9 P:27 SP:FE
D615  A9 AA     LDA #$AA                        A:00 X:33 Y:BA P:A5 SP:FE
D617  8D 78 06  STA $0678 = 00                  A:AA X:33 Y:BA P:A5 SP:FE
D61A  20 DF F7  JSR $F7DF = 18                  A:AA X:33 Y:BA P:A5 SP:FE
F7DF  18        CEC                             A:AA X:33 Y:BA P:A5 SP:FC
F7E0  24 01     BIT $01 = FF                    A:AA X:33 Y:BA P:A4 SP:FC
F7E2  A9 55     LDA #$55                        A:AA X:33 Y:BA P:E4 SP:FC
F7E4  60        RTS                             A:55 X:33 Y:BA P:64 SP:FC
D61D  2D 78 06  AND $0678 = AA                  A:55 X:33 Y:BA P:64 SP:FE
D620  20 E5 F7  JSR $F7E5 = D0                  A:00 X:33 Y:BA P:66 SP:FE
F7E5  D0 07     BNE $F7EE                       A:00 X:33 Y:BA P:66 SP:FC
F7E7  50 05     BVC $F7EE                       A:00 X:33 Y:BA P:66 SP:FC
F7E9  B0 03     BCS $F7EE                       A:00 X:33 Y:BA P:66 SP:FC
F7EB  30 01     BMI $F7EE                       A:00 X:33 Y:BA P:66 SP:FC
F7ED  60        RTS                             A:00 X:33 Y:BA P:66 SP:FC
D623  C8        INY                             A:00 X:33 Y:BA P:66 SP:FE
D624  A9 EF     LDA #$EF                        A:00 X:33 Y:BB P:E4 SP:FE
D626  8D 78 06  STA $0678 = AA                  A:EF X:33 Y:BB P:E4 SP:FE
D629  20 F1 F7  JSR $F7F1 = 38                  A:EF X:33 Y:BB P:E4 SP:FE
F7F1  38        SEC                             A:EF X:33 Y:BB P:E4 SP:FC
F7F2  B8        CLV                             A:EF X:33 Y:BB P:E5 SP:FC
F7F3  A9 F8     LDA #$F8                        A:EF X:33 Y:BB P:A5 SP:FC
F7F5  60        RTS                             A:F8 X:33 Y:BB P:A5 SP:FC
D62C  2D 78 06  AND $0678 = EF                  A:F8 X:33 Y:BB P:A5 SP:FE
D62F  20 F6 F7  JSR $F7F6 = 90                  A:E8 X:33 Y:BB P:A5 SP:FE
F7F6  90 09     BCC $F801                       A:E8 X:33 Y:BB P:A5 SP:FC
F7F8  10 07     BPL $F801                       A:E8 X:33 Y:BB P:A5 SP:FC
F7FA  C9 E8     CMP #$E8                        A:E8 X:33 Y:BB P:A5 SP:FC
F7FC  D0 03     BNE $F801                       A:E8 X:33 Y:BB P:27 SP:FC
F7FE  70 01     BVS $F801                       A:E8 X:33 Y:BB P:27 SP:FC
F800  60        RTS                             A:E8 X:33 Y:BB P:27 SP:FC
D632  C8        INY                             A:E8 X:33 Y:BB P:27 SP:FE
D633  A9 AA     LDA #$AA                        A:E8 X:33 Y:BC P:A5 SP:FE
D635  8D 78 06  STA $0678 = EF                  A:AA X:33 Y:BC P:A5 SP:FE
D638  20 04 F8  JSR $F804 = 18                  A:AA X:33 Y:BC P:A5 SP:FE
F804  18        CEC                             A:AA X:33 Y:BC P:A5 SP:FC
F805  24 01     BIT $01 = FF                    A:AA X:33 Y:BC P:A4 SP:FC
F807  A9 5F     LDA #$5F                        A:AA X:33 Y:BC P:E4 SP:FC
F809  60        RTS                             A:5F X:33 Y:BC P:64 SP:FC
D63B  4D 78 06  EOR $0678 = AA                  A:5F X:33 Y:BC P:64 SP:FE
D63E  20 0A F8  JSR $F80A = B0                  A:F5 X:33 Y:BC P:E4 SP:FE
F80A  B0 09     BCS $F815                       A:F5 X:33 Y:BC P:E4 SP:FC
F80C  10 07     BPL $F815                       A:F5 X:33 Y:BC P:E4 SP:FC
F80E  C9 F5     CMP #$F5                        A:F5 X:33 Y:BC P:E4 SP:FC
F810  D0 03     BNE $F815                       A:F5 X:33 Y:BC P:67 SP:FC
F812  50 01     BVC $F815                       A:F5 X:33 Y:BC P:67 SP:FC
F814  60        RTS                             A:F5 X:33 Y:BC P:67 SP:FC
D641  C8        INY                             A:F5 X:33 Y:BC P:67 SP:FE
D642  A9 70     LDA #$70                        A:F5 X:33 Y:BD P:E5 SP:FE
D644  8D 78 06  STA $0678 = AA                  A:70 X:33 Y:BD P:65 SP:FE
D647  20 18 F8  JSR $F818 = 38                  A:70 X:33 Y:BD P:65 SP:FE
F818  38        SEC                             A:70 X:33 Y:BD P:65 SP:FC
F819  B8        CLV                             A:70 X:33 Y:BD P:65 SP:FC
F81A  A9 70     LDA #$70                        A:70 X:33 Y:BD P:25 SP:FC
F81C  60        RTS                             A:70 X:33 Y:BD P:25 SP:FC
D64A  4D 78 06  EOR $0678 = 70                  A:70 X:33 Y:BD P:25 SP:FE
D64D  20 1D F8  JSR $F81D = D0                  A:00 X:33 Y:BD P:27 SP:FE
F81D  D0 07     BNE $F826                       A:00 X:33 Y:BD P:27 SP:FC
F81F  70 05     BVS $F826                       A:00 X:33 Y:BD P:27 SP:FC
F821  90 03     BCC $F826                       A:00 X:33 Y:BD P:27 SP:FC
F823  30 01     BMI $F826                       A:00 X:33 Y:BD P:27 SP:FC
F825  60        RTS                             A:00 X:33 Y:BD P:27 SP:FC
D650  C8        INY                             A:00 X:33 Y:BD P:27 SP:FE
D651  A9 69     LDA #$69                        A:00 X:33 Y:BE P:A5 SP:FE
D653  8D 78 06  STA $0678 = 70                  A:69 X:33 Y:BE P:25 SP:FE
D656  20 29 F8  JSR $F829 = 18                  A:69 X:33 Y:BE P:25 SP:FE
F829  18        CEC                             A:69 X:33 Y:BE P:25 SP:FC
F82A  24 01     BIT $01 = FF                    A:69 X:33 Y:BE P:24 SP:FC
F82C  A9 00     LDA #$00                        A:69 X:33 Y:BE P:E4 SP:FC
F82E  60        RTS                             A:00 X:33 Y:BE P:66 SP:FC
D659  6D 78 06  ADC $0678 = 69                  A:00 X:33 Y:BE P:66 SP:FE
D65C  20 2F F8  JSR $F82F = 30                  A:69 X:33 Y:BE P:24 SP:FE
F82F  30 09     BMI $F83A                       A:69 X:33 Y:BE P:24 SP:FC
F831  B0 07     BCS $F83A                       A:69 X:33 Y:BE P:24 SP:FC
F833  C9 69     CMP #$69                        A:69 X:33 Y:BE P:24 SP:FC
F835  D0 03     BNE $F83A                       A:69 X:33 Y:BE P:27 SP:FC
F837  70 01     BVS $F83A                       A:69 X:33 Y:BE P:27 SP:FC
F839  60        RTS                             A:69 X:33 Y:BE P:27 SP:FC
D65F  C8        INY                             A:69 X:33 Y:BE P:27 SP:FE
D660  20 3D F8  JSR $F83D = 38                  A:69 X:33 Y:BF P:A5 SP:FE
F83D  38        SEC                             A:69 X:33 Y:BF P:A5 SP:FC
F83E  24 01     BIT $01 = FF                    A:69 X:33 Y:BF P:A5 SP:FC
F840  A9 00     LDA #$00                        A:69 X:33 Y:BF P:E5 SP:FC
F842  60        RTS                             A:00 X:33 Y:BF P:67 SP:FC
D663  6D 78 06  ADC $0678 = 69                  A:00 X:33 Y:BF P:67 SP:FE
D666  20 43 F8  JSR $F843 = 30                  A:6A X:33 Y:BF P:24 SP:FE
F843  30 09     BMI $F84E                       A:6A X:33 Y:BF P:24 SP:FC
F845  B0 07     BCS $F84E                       A:6A X:33 Y:BF P:24 SP:FC
F847  C9 6A     CMP #$6A                        A:6A X:33 Y:BF P:24 SP:FC
F849  D0 03     BNE $F84E                       A:6A X:33 Y:BF P:27 SP:FC
F84B  70 01     BVS $F84E                       A:6A X:33 Y:BF P:27 SP:FC
F84D  60        RTS                             A:6A X:33 Y:BF P:27 SP:FC
D669  C8        INY                             A:6A X:33 Y:BF P:27 SP:FE
D66A  A9 7F     LDA #$7F                        A:6A X:33 Y:C0 P:A5 SP:FE
D66C  8D 78 06  STA $0678 = 69                  A:7F X:33 Y:C0 P:25 SP:FE
D66F  20 51 F8  JSR $F851 = 38                  A:7F X:33 Y:C0 P:25 SP:FE
F851  38        SEC                             A:7F X:33 Y:C0 P:25 SP:FC
F852  B8        CLV                             A:7F X:33 Y:C0 P:25 SP:FC
F853  A9 7F     LDA #$7F                        A:7F X:33 Y:C0 P:25 SP:FC
F855  60        RTS                             A:7F X:33 Y:C0 P:25 SP:FC
D672  6D 78 06  ADC $0678 = 7F                  A:7F X:33 Y:C0 P:25 SP:FE
D675  20 56 F8  JSR $F856 = 10                  A:FF X:33 Y:C0 P:E4 SP:FE
F856  10 09     BPL $F861                       A:FF X:33 Y:C0 P:E4 SP:FC
F858  B0 07     BCS $F861                       A:FF X:33 Y:C0 P:E4 SP:FC
F85A  C9 FF     CMP #$FF                        A:FF X:33 Y:C0 P:E4 SP:FC
F85C  D0 03     BNE $F861                       A:FF X:33 Y:C0 P:67 SP:FC
F85E  50 01     BVC $F861                       A:FF X:33 Y:C0 P:67 SP:FC
F860  60        RTS                             A:FF X:33 Y:C0 P:67 SP:FC
D678  C8        INY                             A:FF X:33 Y:C0 P:67 SP:FE
D679  A9 80     LDA #$80                        A:FF X:33 Y:C1 P:E5 SP:FE
D67B  8D 78 06  STA $0678 = 7F                  A:80 X:33 Y:C1 P:E5 SP:FE
D67E  20 64 F8  JSR $F864 = 18                  A:80 X:33 Y:C1 P:E5 SP:FE
F864  18        CEC                             A:80 X:33 Y:C1 P:E5 SP:FC
F865  24 01     BIT $01 = FF                    A:80 X:33 Y:C1 P:E4 SP:FC
F867  A9 7F     LDA #$7F                        A:80 X:33 Y:C1 P:E4 SP:FC
F869  60        RTS                             A:7F X:33 Y:C1 P:64 SP:FC
D681  6D 78 06  ADC $0678 = 80                  A:7F X:33 Y:C1 P:64 SP:FE
D684  20 6A F8  JSR $F86A = 10                  A:FF X:33 Y:C1 P:A4 SP:FE
F86A  10 09     BPL $F875                       A:FF X:33 Y:C1 P:A4 SP:FC
F86C  B0 07     BCS $F875                       A:FF X:33 Y:C1 P:A4 SP:FC
F86E  C9 FF     CMP #$FF                        A:FF X:33 Y:C1 P:A4 SP:FC
F870  D0 03     BNE $F875                       A:FF X:33 Y:C1 P:27 SP:FC
F872  70 01     BVS $F875                       A:FF X:33 Y:C1 P:27 SP:FC
F874  60        RTS                             A:FF X:33 Y:C1 P:27 SP:FC
D687  C8        INY                             A:FF X:33 Y:C1 P:27 SP:FE
D688  20 78 F8  JSR $F878 = 38                  A:FF X:33 Y:C2 P:A5 SP:FE
F878  38        SEC                             A:FF X:33 Y:C2 P:A5 SP:FC
F879  B8        CLV                             A:FF X:33 Y:C2 P:A5 SP:FC
F87A  A9 7F     LDA #$7F                        A:FF X:33 Y:C2 P:A5 SP:FC
F87C  60        RTS                             A:7F X:33 Y:C2 P:25 SP:FC
D68B  6D 78 06  ADC $0678 = 80                  A:7F X:33 Y:C2 P:25 SP:FE
D68E  20 7D F8  JSR $F87D = D0                  A:00 X:33 Y:C2 P:27 SP:FE
F87D  D0 07     BNE $F886                       A:00 X:33 Y:C2 P:27 SP:FC
F87F  30 05     BMI $F886                       A:00 X:33 Y:C2 P:27 SP:FC
F881  70 03     BVS $F886                       A:00 X:33 Y:C2 P:27 SP:FC
F883  90 01     BCC $F886                       A:00 X:33 Y:C2 P:27 SP:FC
F885  60        RTS                             A:00 X:33 Y:C2 P:27 SP:FC
D691  C8        INY                             A:00 X:33 Y:C2 P:27 SP:FE
D692  A9 40     LDA #$40                        A:00 X:33 Y:C3 P:A5 SP:FE
D694  8D 78 06  STA $0678 = 80                  A:40 X:33 Y:C3 P:25 SP:FE
D697  20 89 F8  JSR $F889 = 24                  A:40 X:33 Y:C3 P:25 SP:FE
F889  24 01     BIT $01 = FF                    A:40 X:33 Y:C3 P:25 SP:FC
F88B  A9 40     LDA #$40                        A:40 X:33 Y:C3 P:E5 SP:FC
F88D  60        RTS                             A:40 X:33 Y:C3 P:65 SP:FC
D69A  CD 78 06  CMP $0678 = 40                  A:40 X:33 Y:C3 P:65 SP:FE
D69D  20 8E F8  JSR $F88E = 30                  A:40 X:33 Y:C3 P:67 SP:FE
F88E  30 07     BMI $F897                       A:40 X:33 Y:C3 P:67 SP:FC
F890  90 05     BCC $F897                       A:40 X:33 Y:C3 P:67 SP:FC
F892  D0 03     BNE $F897                       A:40 X:33 Y:C3 P:67 SP:FC
F894  50 01     BVC $F897                       A:40 X:33 Y:C3 P:67 SP:FC
F896  60        RTS                             A:40 X:33 Y:C3 P:67 SP:FC
D6A0  C8        INY                             A:40 X:33 Y:C3 P:67 SP:FE
D6A1  48        PHA                             A:40 X:33 Y:C4 P:E5 SP:FE
D6A2  A9 3F     LDA #$3F                        A:40 X:33 Y:C4 P:E5 SP:FD
D6A4  8D 78 06  STA $0678 = 40                  A:3F X:33 Y:C4 P:65 SP:FD
D6A7  68        PLA                             A:3F X:33 Y:C4 P:65 SP:FD
D6A8  20 9A F8  JSR $F89A = B8                  A:40 X:33 Y:C4 P:65 SP:FE
F89A  B8        CLV                             A:40 X:33 Y:C4 P:65 SP:FC
F89B  60        RTS                             A:40 X:33 Y:C4 P:25 SP:FC
D6AB  CD 78 06  CMP $0678 = 3F                  A:40 X:33 Y:C4 P:25 SP:FE
D6AE  20 9C F8  JSR $F89C = F0                  A:40 X:33 Y:C4 P:25 SP:FE
F89C  F0 07     BEQ $F8A5                       A:40 X:33 Y:C4 P:25 SP:FC
F89E  30 05     BMI $F8A5                       A:40 X:33 Y:C4 P:25 SP:FC
F8A0  90 03     BCC $F8A5                       A:40 X:33 Y:C4 P:25 SP:FC
F8A2  70 01     BVS $F8A5                       A:40 X:33 Y:C4 P:25 SP:FC
F8A4  60        RTS                             A:40 X:33 Y:C4 P:25 SP:FC
D6B1  C8        INY                             A:40 X:33 Y:C4 P:25 SP:FE
D6B2  48        PHA                             A:40 X:33 Y:C5 P:A5 SP:FE
D6B3  A9 41     LDA #$41                        A:40 X:33 Y:C5 P:A5 SP:FD
D6B5  8D 78 06  STA $0678 = 3F                  A:41 X:33 Y:C5 P:25 SP:FD
D6B8  68        PLA                             A:41 X:33 Y:C5 P:25 SP:FD
D6B9  CD 78 06  CMP $0678 = 41                  A:40 X:33 Y:C5 P:25 SP:FE
D6BC  20 A8 F8  JSR $F8A8 = F0                  A:40 X:33 Y:C5 P:A4 SP:FE
F8A8  F0 05     BEQ $F8AF                       A:40 X:33 Y:C5 P:A4 SP:FC
F8AA  10 03     BPL $F8AF                       A:40 X:33 Y:C5 P:A4 SP:FC
F8AC  10 01     BPL $F8AF                       A:40 X:33 Y:C5 P:A4 SP:FC
F8AE  60        RTS                             A:40 X:33 Y:C5 P:A4 SP:FC
D6BF  C8        INY                             A:40 X:33 Y:C5 P:A4 SP:FE
D6C0  48        PHA                             A:40 X:33 Y:C6 P:A4 SP:FE
D6C1  A9 00     LDA #$00                        A:40 X:33 Y:C6 P:A4 SP:FD
D6C3  8D 78 06  STA $0678 = 41                  A:00 X:33 Y:C6 P:26 SP:FD
D6C6  68        PLA                             A:00 X:33 Y:C6 P:26 SP:FD
D6C7  20 B2 F8  JSR $F8B2 = A9                  A:40 X:33 Y:C6 P:24 SP:FE
F8B2  A9 80     LDA #$80                        A:40 X:33 Y:C6 P:24 SP:FC
F8B4  60        RTS                             A:80 X:33 Y:C6 P:A4 SP:FC
D6CA  CD 78 06  CMP $0678 = 00                  A:80 X:33 Y:C6 P:A4 SP:FE
D6CD  20 B5 F8  JSR $F8B5 = F0                  A:80 X:33 Y:C6 P:A5 SP:FE
F8B5  F0 05     BEQ $F8BC                       A:80 X:33 Y:C6 P:A5 SP:FC
F8B7  10 03     BPL $F8BC                       A:80 X:33 Y:C6 P:A5 SP:FC
F8B9  90 01     BCC $F8BC                       A:80 X:33 Y:C6 P:A5 SP:FC
F8BB  60        RTS                             A:80 X:33 Y:C6 P:A5 SP:FC
D6D0  C8        INY                             A:80 X:33 Y:C6 P:A5 SP:FE
D6D1  48        PHA                             A:80 X:33 Y:C7 P:A5 SP:FE
D6D2  A9 80     LDA #$80                        A:80 X:33 Y:C7 P:A5 SP:FD
D6D4  8D 78 06  STA $0678 = 00                  A:80 X:33 Y:C7 P:A5 SP:FD
D6D7  68        PLA                             A:80 X:33 Y:C7 P:A5 SP:FD
D6D8  CD 78 06  CMP $0678 = 80                  A:80 X:33 Y:C7 P:A5 SP:FE
D6DB  20 BF F8  JSR $F8BF = D0                  A:80 X:33 Y:C7 P:27 SP:FE
F8BF  D0 05     BNE $F8C6                       A:80 X:33 Y:C7 P:27 SP:FC
F8C1  30 03     BMI $F8C6                       A:80 X:33 Y:C7 P:27 SP:FC
F8C3  90 01     BCC $F8C6                       A:80 X:33 Y:C7 P:27 SP:FC
F8C5  60        RTS                             A:80 X:33 Y:C7 P:27 SP:FC
D6DE  C8        INY                             A:80 X:33 Y:C7 P:27 SP:FE
D6DF  48        PHA                             A:80 X:33 Y:C8 P:A5 SP:FE
D6E0  A9 81     LDA #$81                        A:80 X:33 Y:C8 P:A5 SP:FD
D6E2  8D 78 06  STA $0678 = 80                  A:81 X:33 Y:C8 P:A5 SP:FD
D6E5  68        PLA                             A:81 X:33 Y:C8 P:A5 SP:FD
D6E6  CD 78 06  CMP $0678 = 81                  A:80 X:33 Y:C8 P:A5 SP:FE
D6E9  20 C9 F8  JSR $F8C9 = B0                  A:80 X:33 Y:C8 P:A4 SP:FE
F8C9  B0 05     BCS $F8D0                       A:80 X:33 Y:C8 P:A4 SP:FC
F8CB  F0 03     BEQ $F8D0                       A:80 X:33 Y:C8 P:A4 SP:FC
F8CD  10 01     BPL $F8D0                       A:80 X:33 Y:C8 P:A4 SP:FC
F8CF  60        RTS                             A:80 X:33 Y:C8 P:A4 SP:FC
D6EC  C8        INY                             A:80 X:33 Y:C8 P:A4 SP:FE
D6ED  48        PHA                             A:80 X:33 Y:C9 P:A4 SP:FE
D6EE  A9 7F     LDA #$7F                        A:80 X:33 Y:C9 P:A4 SP:FD
D6F0  8D 78 06  STA $0678 = 81                  A:7F X:33 Y:C9 P:24 SP:FD
D6F3  68        PLA                             A:7F X:33 Y:C9 P:24 SP:FD
D6F4  CD 78 06  CMP $0678 = 7F                  A:80 X:33 Y:C9 P:A4 SP:FE
D6F7  20 D3 F8  JSR $F8D3 = 90                  A:80 X:33 Y:C9 P:25 SP:FE
F8D3  90 05     BCC $F8DA                       A:80 X:33 Y:C9 P:25 SP:FC
F8D5  F0 03     BEQ $F8DA                       A:80 X:33 Y:C9 P:25 SP:FC
F8D7  30 01     BMI $F8DA                       A:80 X:33 Y:C9 P:25 SP:FC
F8D9  60        RTS                             A:80 X:33 Y:C9 P:25 SP:FC
D6FA  C8        INY                             A:80 X:33 Y:C9 P:25 SP:FE
D6FB  A9 40     LDA #$40                        A:80 X:33 Y:CA P:A5 SP:FE
D6FD  8D 78 06  STA $0678 = 7F                  A:40 X:33 Y:CA P:25 SP:FE
D700  20 31 F9  JSR $F931 = 24                  A:40 X:33 Y:CA P:25 SP:FE
F931  24 01     BIT $01 = FF                    A:40 X:33 Y:CA P:25 SP:FC
F933  A9 40     LDA #$40                        A:40 X:33 Y:CA P:E5 SP:FC
F935  38        SEC                             A:40 X:33 Y:CA P:65 SP:FC
F936  60        RTS                             A:40 X:33 Y:CA P:65 SP:FC
D703  ED 78 06  SBC $0678 = 40                  A:40 X:33 Y:CA P:65 SP:FE
D706  20 37 F9  JSR $F937 = 30                  A:00 X:33 Y:CA P:27 SP:FE
F937  30 0B     BMI $F944                       A:00 X:33 Y:CA P:27 SP:FC
F939  90 09     BCC $F944                       A:00 X:33 Y:CA P:27 SP:FC
F93B  D0 07     BNE $F944                       A:00 X:33 Y:CA P:27 SP:FC
F93D  70 05     BVS $F944                       A:00 X:33 Y:CA P:27 SP:FC
F93F  C9 00     CMP #$00                        A:00 X:33 Y:CA P:27 SP:FC
F941  D0 01     BNE $F944                       A:00 X:33 Y:CA P:27 SP:FC
F943  60        RTS                             A:00 X:33 Y:CA P:27 SP:FC
D709  C8        INY                             A:00 X:33 Y:CA P:27 SP:FE
D70A  A9 3F     LDA #$3F                        A:00 X:33 Y:CB P:A5 SP:FE
D70C  8D 78 06  STA $0678 = 40                  A:3F X:33 Y:CB P:25 SP:FE
D70F  20 47 F9  JSR $F947 = B8                  A:3F X:33 Y:CB P:25 SP:FE
F947  B8        CLV                             A:3F X:33 Y:CB P:25 SP:FC
F948  38        SEC                             A:3F X:33 Y:CB P:25 SP:FC
F949  A9 40     LDA #$40                        A:3F X:33 Y:CB P:25 SP:FC
F94B  60        RTS                             A:40 X:33 Y:CB P:25 SP:FC
D712  ED 78 06  SBC $0678 = 3F                  A:40 X:33 Y:CB P:25 SP:FE
D715  20 4C F9  JSR $F94C = F0                  A:01 X:33 Y:CB P:25 SP:FE
F94C  F0 0B     BEQ $F959                       A:01 X:33 Y:CB P:25 SP:FC
F94E  30 09     BMI $F959                       A:01 X:33 Y:CB P:25 SP:FC
F950  90 07     BCC $F959                       A:01 X:33 Y:CB P:25 SP:FC
F952  70 05     BVS $F959                       A:01 X:33 Y:CB P:25 SP:FC
F954  C9 01     CMP #$01                        A:01 X:33 Y:CB P:25 SP:FC
F956  D0 01     BNE $F959                       A:01 X:33 Y:CB P:27 SP:FC
F958  60        RTS                             A:01 X:33 Y:CB P:27 SP:FC
D718  C8        INY                             A:01 X:33 Y:CB P:27 SP:FE
D719  A9 41     LDA #$41                        A:01 X:33 Y:CC P:A5 SP:FE
D71B  8D 78 06  STA $0678 = 3F                  A:41 X:33 Y:CC P:25 SP:FE
D71E  20 5C F9  JSR $F95C = A9                  A:41 X:33 Y:CC P:25 SP:FE
F95C  A9 40     LDA #$40                        A:41 X:33 Y:CC P:25 SP:FC
F95E  38        SEC                             A:40 X:33 Y:CC P:25 SP:FC
F95F  24 01     BIT $01 = FF                    A:40 X:33 Y:CC P:25 SP:FC
F961  60        RTS                             A:40 X:33 Y:CC P:E5 SP:FC
D721  ED 78 06  SBC $0678 = 41                  A:40 X:33 Y:CC P:E5 SP:FE
D724  20 62 F9  JSR $F962 = B0                  A:FF X:33 Y:CC P:A4 SP:FE
F962  B0 0B     BCS $F96F                       A:FF X:33 Y:CC P:A4 SP:FC
F964  F0 09     BEQ $F96F                       A:FF X:33 Y:CC P:A4 SP:FC
F966  10 07     BPL $F96F                       A:FF X:33 Y:CC P:A4 SP:FC
F968  70 05     BVS $F96F                       A:FF X:33 Y:CC P:A4 SP:FC
F96A  C9 FF     CMP #$FF                        A:FF X:33 Y:CC P:A4 SP:FC
F96C  D0 01     BNE $F96F                       A:FF X:33 Y:CC P:27 SP:FC
F96E  60        RTS                             A:FF X:33 Y:CC P:27 SP:FC
D727  C8        INY                             A:FF X:33 Y:CC P:27 SP:FE
D728  A9 00     LDA #$00                        A:FF X:33 Y:CD P:A5 SP:FE
D72A  8D 78 06  STA $0678 = 41                  A:00 X:33 Y:CD P:27 SP:FE
D72D  20 72 F9  JSR $F972 = 18                  A:00 X:33 Y:CD P:27 SP:FE
F972  18        CEC                             A:00 X:33 Y:CD P:27 SP:FC
F973  A9 80     LDA #$80                        A:00 X:33 Y:CD P:26 SP:FC
F975  60        RTS                             A:80 X:33 Y:CD P:A4 SP:FC
D730  ED 78 06  SBC $0678 = 00                  A:80 X:33 Y:CD P:A4 SP:FE
D733  20 76 F9  JSR $F976 = 90                  A:7F X:33 Y:CD P:65 SP:FE
F976  90 05     BCC $F97D                       A:7F X:33 Y:CD P:65 SP:FC
F978  C9 7F     CMP #$7F                        A:7F X:33 Y:CD P:65 SP:FC
F97A  D0 01     BNE $F97D                       A:7F X:33 Y:CD P:67 SP:FC
F97C  60        RTS                             A:7F X:33 Y:CD P:67 SP:FC
D736  C8        INY                             A:7F X:33 Y:CD P:67 SP:FE
D737  A9 7F     LDA #$7F                        A:7F X:33 Y:CE P:E5 SP:FE
D739  8D 78 06  STA $0678 = 00                  A:7F X:33 Y:CE P:65 SP:FE
D73C  20 80 F9  JSR $F980 = 38                  A:7F X:33 Y:CE P:65 SP:FE
F980  38        SEC                             A:7F X:33 Y:CE P:65 SP:FC
F981  A9 81     LDA #$81                        A:7F X:33 Y:CE P:65 SP:FC
F983  60        RTS                             A:81 X:33 Y:CE P:E5 SP:FC
D73F  ED 78 06  SBC $0678 = 7F                  A:81 X:33 Y:CE P:E5 SP:FE
D742  20 84 F9  JSR $F984 = 50                  A:02 X:33 Y:CE P:65 SP:FE
F984  50 07     BVC $F98D                       A:02 X:33 Y:CE P:65 SP:FC
F986  90 05     BCC $F98D                       A:02 X:33 Y:CE P:65 SP:FC
F988  C9 02     CMP #$02                        A:02 X:33 Y:CE P:65 SP:FC
F98A  D0 01     BNE $F98D                       A:02 X:33 Y:CE P:67 SP:FC
F98C  60        RTS                             A:02 X:33 Y:CE P:67 SP:FC
D745  C8        INY                             A:02 X:33 Y:CE P:67 SP:FE
D746  A9 40     LDA #$40                        A:02 X:33 Y:CF P:E5 SP:FE
D748  8D 78 06  STA $0678 = 7F                  A:40 X:33 Y:CF P:65 SP:FE
D74B  20 89 F8  JSR $F889 = 24                  A:40 X:33 Y:CF P:65 SP:FE
F889  24 01     BIT $01 = FF                    A:40 X:33 Y:CF P:65 SP:FC
F88B  A9 40     LDA #$40                        A:40 X:33 Y:CF P:E5 SP:FC
F88D  60        RTS                             A:40 X:33 Y:CF P:65 SP:FC
D74E  AA        TAX                             A:40 X:33 Y:CF P:65 SP:FE
D74F  EC 78 06  CPX $0678 = 40                  A:40 X:40 Y:CF P:65 SP:FE
D752  20 8E F8  JSR $F88E = 30                  A:40 X:40 Y:CF P:67 SP:FE
F88E  30 07     BMI $F897                       A:40 X:40 Y:CF P:67 SP:FC
F890  90 05     BCC $F897                       A:40 X:40 Y:CF P:67 SP:FC
F892  D0 03     BNE $F897                       A:40 X:40 Y:CF P:67 SP:FC
F894  50 01     BVC $F897                       A:40 X:40 Y:CF P:67 SP:FC
F896  60        RTS                             A:40 X:40 Y:CF P:67 SP:FC
D755  C8        INY                             A:40 X:40 Y:CF P:67 SP:FE
D756  A9 3F     LDA #$3F                        A:40 X:40 Y:D0 P:E5 SP:FE
D758  8D 78 06  STA $0678 = 40                  A:3F X:40 Y:D0 P:65 SP:FE
D75B  20 9A F8  JSR $F89A = B8                  A:3F X:40 Y:D0 P:65 SP:FE
F89A  B8        CLV                             A:3F X:40 Y:D0 P:65 SP:FC
F89B  60        RTS                             A:3F X:40 Y:D0 P:25 SP:FC
D75E  EC 78 06  CPX $0678 = 3F                  A:3F X:40 Y:D0 P:25 SP:FE
D761  20 9C F8  JSR $F89C = F0                  A:3F X:40 Y:D0 P:25 SP:FE
F89C  F0 07     BEQ $F8A5                       A:3F X:40 Y:D0 P:25 SP:FC
F89E  30 05     BMI $F8A5                       A:3F X:40 Y:D0 P:25 SP:FC
F8A0  90 03     BCC $F8A5                       A:3F X:40 Y:D0 P:25 SP:FC
F8A2  70 01     BVS $F8A5                       A:3F X:40 Y:D0 P:25 SP:FC
F8A4  60        RTS                             A:3F X:40 Y:D0 P:25 SP:FC
D764  C8        INY                             A:3F X:40 Y:D0 P:25 SP:FE
D765  A9 41     LDA #$41                        A:3F X:40 Y:D1 P:A5 SP:FE
D767  8D 78 06  STA $0678 = 3F                  A:41 X:40 Y:D1 P:25 SP:FE
D76A  EC 78 06  CPX $0678 = 41                  A:41 X:40 Y:D1 P:25 SP:FE
D76D  20 A8 F8  JSR $F8A8 = F0                  A:41 X:40 Y:D1 P:A4 SP:FE
F8A8  F0 05     BEQ $F8AF                       A:41 X:40 Y:D1 P:A4 SP:FC
F8AA  10 03     BPL $F8AF                       A:41 X:40 Y:D1 P:A4 SP:FC
F8AC  10 01     BPL $F8AF                       A:41 X:40 Y:D1 P:A4 SP:FC
F8AE  60        RTS                             A:41 X:40 Y:D1 P:A4 SP:FC
D770  C8        INY                             A:41 X:40 Y:D1 P:A4 SP:FE
D771  A9 00     LDA #$00                        A:41 X:40 Y:D2 P:A4 SP:FE
D773  8D 78 06  STA $0678 = 41                  A:00 X:40 Y:D2 P:26 SP:FE
D776  20 B2 F8  JSR $F8B2 = A9                  A:00 X:40 Y:D2 P:26 SP:FE
F8B2  A9 80     LDA #$80                        A:00 X:40 Y:D2 P:26 SP:FC
F8B4  60        RTS                             A:80 X:40 Y:D2 P:A4 SP:FC
D779  AA        TAX                             A:80 X:40 Y:D2 P:A4 SP:FE
D77A  EC 78 06  CPX $0678 = 00                  A:80 X:80 Y:D2 P:A4 SP:FE
D77D  20 B5 F8  JSR $F8B5 = F0                  A:80 X:80 Y:D2 P:A5 SP:FE
F8B5  F0 05     BEQ $F8BC                       A:80 X:80 Y:D2 P:A5 SP:FC
F8B7  10 03     BPL $F8BC                       A:80 X:80 Y:D2 P:A5 SP:FC
F8B9  90 01     BCC $F8BC                       A:80 X:80 Y:D2 P:A5 SP:FC
F8BB  60        RTS                             A:80 X:80 Y:D2 P:A5 SP:FC
D780  C8        INY                             A:80 X:80 Y:D2 P:A5 SP:FE
D781  A9 80     LDA #$80                        A:80 X:80 Y:D3 P:A5 SP:FE
D783  8D 78 06  STA $0678 = 00                  A:80 X:80 Y:D3 P:A5 SP:FE
D786  EC 78 06  CPX $0678 = 80                  A:80 X:80 Y:D3 P:A5 SP:FE
D789  20 BF F8  JSR $F8BF = D0                  A:80 X:80 Y:D3 P:27 SP:FE
F8BF  D0 05     BNE $F8C6                       A:80 X:80 Y:D3 P:27 SP:FC
F8C1  30 03     BMI $F8C6                       A:80 X:80 Y:D3 P:27 SP:FC
F8C3  90 01     BCC $F8C6                       A:80 X:80 Y:D3 P:27 SP:FC
F8C5  60        RTS                             A:80 X:80 Y:D3 P:27 SP:FC
D78C  C8        INY                             A:80 X:80 Y:D3 P:27 SP:FE
D78D  A9 81     LDA #$81                        A:80 X:80 Y:D4 P:A5 SP:FE
D78F  8D 78 06  STA $0678 = 80                  A:81 X:80 Y:D4 P:A5 SP:FE
D792  EC 78 06  CPX $0678 = 81                  A:81 X:80 Y:D4 P:A5 SP:FE
D795  20 C9 F8  JSR $F8C9 = B0                  A:81 X:80 Y:D4 P:A4 SP:FE
F8C9  B0 05     BCS $F8D0                       A:81 X:80 Y:D4 P:A4 SP:FC
F8CB  F0 03     BEQ $F8D0                       A:81 X:80 Y:D4 P:A4 SP:FC
F8CD  10 01     BPL $F8D0                       A:81 X:80 Y:D4 P:A4 SP:FC
F8CF  60        RTS                             A:81 X:80 Y:D4 P:A4 SP:FC
D798  C8        INY                             A:81 X:80 Y:D4 P:A4 SP:FE
D799  A9 7F     LDA #$7F                        A:81 X:80 Y:D5 P:A4 SP:FE
D79B  8D 78 06  STA $0678 = 81                  A:7F X:80 Y:D5 P:24 SP:FE
D79E  EC 78 06  CPX $0678 = 7F                  A:7F X:80 Y:D5 P:24 SP:FE
D7A1  20 D3 F8  JSR $F8D3 = 90                  A:7F X:80 Y:D5 P:25 SP:FE
F8D3  90 05     BCC $F8DA                       A:7F X:80 Y:D5 P:25 SP:FC
F8D5  F0 03     BEQ $F8DA                       A:7F X:80 Y:D5 P:25 SP:FC
F8D7  30 01     BMI $F8DA                       A:7F X:80 Y:D5 P:25 SP:FC
F8D9  60        RTS                             A:7F X:80 Y:D5 P:25 SP:FC
D7A4  C8        INY                             A:7F X:80 Y:D5 P:25 SP:FE
D7A5  98        TYA                             A:7F X:80 Y:D6 P:A5 SP:FE
D7A6  AA        TAX                             A:D6 X:80 Y:D6 P:A5 SP:FE
D7A7  A9 40     LDA #$40                        A:D6 X:D6 Y:D6 P:A5 SP:FE
D7A9  8D 78 06  STA $0678 = 7F                  A:40 X:D6 Y:D6 P:25 SP:FE
D7AC  20 DD F8  JSR $F8DD = 24                  A:40 X:D6 Y:D6 P:25 SP:FE
F8DD  24 01     BIT $01 = FF                    A:40 X:D6 Y:D6 P:25 SP:FC
F8DF  A0 40     LDY #$40                        A:40 X:D6 Y:D6 P:E5 SP:FC
F8E1  60        RTS                             A:40 X:D6 Y:40 P:65 SP:FC
D7AF  CC 78 06  CPY $0678 = 40                  A:40 X:D6 Y:40 P:65 SP:FE
D7B2  20 E2 F8  JSR $F8E2 = 30                  A:40 X:D6 Y:40 P:67 SP:FE
F8E2  30 07     BMI $F8EB                       A:40 X:D6 Y:40 P:67 SP:FC
F8E4  90 05     BCC $F8EB                       A:40 X:D6 Y:40 P:67 SP:FC
F8E6  D0 03     BNE $F8EB                       A:40 X:D6 Y:40 P:67 SP:FC
F8E8  50 01     BVC $F8EB                       A:40 X:D6 Y:40 P:67 SP:FC
F8EA  60        RTS                             A:40 X:D6 Y:40 P:67 SP:FC
D7B5  E8        INX                             A:40 X:D6 Y:40 P:67 SP:FE
D7B6  A9 3F     LDA #$3F                        A:40 X:D7 Y:40 P:E5 SP:FE
D7B8  8D 78 06  STA $0678 = 40                  A:3F X:D7 Y:40 P:65 SP:FE
D7BB  20 EE F8  JSR $F8EE = B8                  A:3F X:D7 Y:40 P:65 SP:FE
F8EE  B8        CLV                             A:3F X:D7 Y:40 P:65 SP:FC
F8EF  60        RTS                             A:3F X:D7 Y:40 P:25 SP:FC
D7BE  CC 78 06  CPY $0678 = 3F                  A:3F X:D7 Y:40 P:25 SP:FE
D7C1  20 F0 F8  JSR $F8F0 = F0                  A:3F X:D7 Y:40 P:25 SP:FE
F8F0  F0 07     BEQ $F8F9                       A:3F X:D7 Y:40 P:25 SP:FC
F8F2  30 05     BMI $F8F9                       A:3F X:D7 Y:40 P:25 SP:FC
F8F4  90 03     BCC $F8F9                       A:3F X:D7 Y:40 P:25 SP:FC
F8F6  70 01     BVS $F8F9                       A:3F X:D7 Y:40 P:25 SP:FC
F8F8  60        RTS                             A:3F X:D7 Y:40 P:25 SP:FC
D7C4  E8        INX                             A:3F X:D7 Y:40 P:25 SP:FE
D7C5  A9 41     LDA #$41                        A:3F X:D8 Y:40 P:A5 SP:FE
D7C7  8D 78 06  STA $0678 = 3F                  A:41 X:D8 Y:40 P:25 SP:FE
D7CA  CC 78 06  CPY $0678 = 41                  A:41 X:D8 Y:40 P:25 SP:FE
D7CD  20 FC F8  JSR $F8FC = F0                  A:41 X:D8 Y:40 P:A4 SP:FE
F8FC  F0 05     BEQ $F903                       A:41 X:D8 Y:40 P:A4 SP:FC
F8FE  10 03     BPL $F903                       A:41 X:D8 Y:40 P:A4 SP:FC
F900  10 01     BPL $F903                       A:41 X:D8 Y:40 P:A4 SP:FC
F902  60        RTS                             A:41 X:D8 Y:40 P:A4 SP:FC
D7D0  E8        INX                             A:41 X:D8 Y:40 P:A4 SP:FE
D7D1  A9 00     LDA #$00                        A:41 X:D9 Y:40 P:A4 SP:FE
D7D3  8D 78 06  STA $0678 = 41                  A:00 X:D9 Y:40 P:26 SP:FE
D7D6  20 06 F9  JSR $F906 = A0                  A:00 X:D9 Y:40 P:26 SP:FE
F906  A0 80     LDY #$80                        A:00 X:D9 Y:40 P:26 SP:FC
F908  60        RTS                             A:00 X:D9 Y:80 P:A4 SP:FC
D7D9  CC 78 06  CPY $0678 = 00                  A:00 X:D9 Y:80 P:A4 SP:FE
D7DC  20 09 F9  JSR $F909 = F0                  A:00 X:D9 Y:80 P:A5 SP:FE
F909  F0 05     BEQ $F910                       A:00 X:D9 Y:80 P:A5 SP:FC
F90B  10 03     BPL $F910                       A:00 X:D9 Y:80 P:A5 SP:FC
F90D  90 01     BCC $F910                       A:00 X:D9 Y:80 P:A5 SP:FC
F90F  60        RTS                             A:00 X:D9 Y:80 P:A5 SP:FC
D7DF  E8        INX                             A:00 X:D9 Y:80 P:A5 SP:FE
D7E0  A9 80     LDA #$80                        A:00 X:DA Y:80 P:A5 SP:FE
D7E2  8D 78 06  STA $0678 = 00                  A:80 X:DA Y:80 P:A5 SP:FE
D7E5  CC 78 06  CPY $0678 = 80                  A:80 X:DA Y:80 P:A5 SP:FE
D7E8  20 13 F9  JSR $F913 = D0                  A:80 X:DA Y:80 P:27 SP:FE
F913  D0 05     BNE $F91A                       A:80 X:DA Y:80 P:27 SP:FC
F915  30 03     BMI $F91A                       A:80 X:DA Y:80 P:27 SP:FC
F917  90 01     BCC $F91A                       A:80 X:DA Y:80 P:27 SP:FC
F919  60        RTS                             A:80 X:DA Y:80 P:27 SP:FC
D7EB  E8        INX                             A:80 X:DA Y:80 P:27 SP:FE
D7EC  A9 81     LDA #$81                        A:80 X:DB Y:80 P:A5 SP:FE
D7EE  8D 78 06  STA $0678 = 80                  A:81 X:DB Y:80 P:A5 SP:FE
D7F1  CC 78 06  CPY $0678 = 81                  A:81 X:DB Y:80 P:A5 SP:FE
D7F4  20 1D F9  JSR $F91D = B0                  A:81 X:DB Y:80 P:A4 SP:FE
F91D  B0 05     BCS $F924                       A:81 X:DB Y:80 P:A4 SP:FC
F91F  F0 03     BEQ $F924                       A:81 X:DB Y:80 P:A4 SP:FC
F921  10 01     BPL $F924                       A:81 X:DB Y:80 P:A4 SP:FC
F923  60        RTS                             A:81 X:DB Y:80 P:A4 SP:FC
D7F7  E8        INX                             A:81 X:DB Y:80 P:A4 SP:FE
D7F8  A9 7F     LDA #$7F                        A:81 X:DC Y:80 P:A4 SP:FE
D7FA  8D 78 06  STA $0678 = 81                  A:7F X:DC Y:80 P:24 SP:FE
D7FD  CC 78 06  CPY $0678 = 7F                  A:7F X:DC Y:80 P:24 SP:FE
D800  20 27 F9  JSR $F927 = 90                  A:7F X:DC Y:80 P:25 SP:FE
F927  90 05     BCC $F92E                       A:7F X:DC Y:80 P:25 SP:FC
F929  F0 03     BEQ $F92E                       A:7F X:DC Y:80 P:25 SP:FC
F92B  30 01     BMI $F92E                       A:7F X:DC Y:80 P:25 SP:FC
F92D  60        RTS                             A:7F X:DC Y:80 P:25 SP:FC
D803  E8        INX                             A:7F X:DC Y:80 P:25 SP:FE
D804  8A        TXA                             A:7F X:DD Y:80 P:A5 SP:FE
D805  A8        TAY                             A:DD X:DD Y:80 P:A5 SP:FE
D806  20 90 F9  JSR $F990 = A2                  A:DD X:DD Y:DD P:A5 SP:FE
F990  A2 55     LDX #$55                        A:DD X:DD Y:DD P:A5 SP:FC
F992  A9 FF     LDA #$FF                        A:DD X:55 Y:DD P:25 SP:FC
F994  85 01     STA $01 = FF                    A:FF X:55 Y:DD P:A5 SP:FC
F996  EA        NOP                             A:FF X:55 Y:DD P:A5 SP:FC
F997  24 01     BIT $01 = FF                    A:FF X:55 Y:DD P:A5 SP:FC
F999  38        SEC                             A:FF X:55 Y:DD P:E5 SP:FC
F99A  A9 01     LDA #$01                        A:FF X:55 Y:DD P:E5 SP:FC
F99C  60        RTS                             A:01 X:55 Y:DD P:65 SP:FC
D809  8D 78 06  STA $0678 = 7F                  A:01 X:55 Y:DD P:65 SP:FE
D80C  4E 78 06  LSR $0678 = 01                  A:01 X:55 Y:DD P:65 SP:FE
D80F  AD 78 06  LDA $0678 = 00                  A:01 X:55 Y:DD P:67 SP:FE
D812  20 9D F9  JSR $F99D = 90                  A:00 X:55 Y:DD P:67 SP:FE
F99D  90 1B     BCC $F9BA                       A:00 X:55 Y:DD P:67 SP:FC
F99F  D0 19     BNE $F9BA                       A:00 X:55 Y:DD P:67 SP:FC
F9A1  30 17     BMI $F9BA                       A:00 X:55 Y:DD P:67 SP:FC
F9A3  50 15     BVC $F9BA                       A:00 X:55 Y:DD P:67 SP:FC
F9A5  C9 00     CMP #$00                        A:00 X:55 Y:DD P:67 SP:FC
F9A7  D0 11     BNE $F9BA                       A:00 X:55 Y:DD P:67 SP:FC
F9A9  B8        CLV                             A:00 X:55 Y:DD P:67 SP:FC
F9AA  A9 AA     LDA #$AA                        A:00 X:55 Y:DD P:27 SP:FC
F9AC  60        RTS                             A:AA X:55 Y:DD P:A5 SP:FC
D815  C8        INY                             A:AA X:55 Y:DD P:A5 SP:FE
D816  8D 78 06  STA $0678 = 00                  A:AA X:55 Y:DE P:A5 SP:FE
D819  4E 78 06  LSR $0678 = AA                  A:AA X:55 Y:DE P:A5 SP:FE
D81C  AD 78 06  LDA $0678 = 55                  A:AA X:55 Y:DE P:24 SP:FE
D81F  20 AD F9  JSR $F9AD = B0                  A:55 X:55 Y:DE P:24 SP:FE
F9AD  B0 0B     BCS $F9BA                       A:55 X:55 Y:DE P:24 SP:FC
F9AF  F0 09     BEQ $F9BA                       A:55 X:55 Y:DE P:24 SP:FC
F9B1  30 07     BMI $F9BA                       A:55 X:55 Y:DE P:24 SP:FC
F9B3  70 05     BVS $F9BA                       A:55 X:55 Y:DE P:24 SP:FC
F9B5  C9 55     CMP #$55                        A:55 X:55 Y:DE P:24 SP:FC
F9B7  D0 01     BNE $F9BA                       A:55 X:55 Y:DE P:27 SP:FC
F9B9  60        RTS                             A:55 X:55 Y:DE P:27 SP:FC
D822  C8        INY                             A:55 X:55 Y:DE P:27 SP:FE
D823  20 BD F9  JSR $F9BD = 24                  A:55 X:55 Y:DF P:A5 SP:FE
F9BD  24 01     BIT $01 = FF                    A:55 X:55 Y:DF P:A5 SP:FC
F9BF  38        SEC                             A:55 X:55 Y:DF P:E5 SP:FC
F9C0  A9 80     LDA #$80                        A:55 X:55 Y:DF P:E5 SP:FC
F9C2  60        RTS                             A:80 X:55 Y:DF P:E5 SP:FC
D826  8D 78 06  STA $0678 = 55                  A:80 X:55 Y:DF P:E5 SP:FE
D829  0E 78 06  ASL $0678 = 80                  A:80 X:55 Y:DF P:E5 SP:FE
D82C  AD 78 06  LDA $0678 = 00                  A:80 X:55 Y:DF P:67 SP:FE
D82F  20 C3 F9  JSR $F9C3 = 90                  A:00 X:55 Y:DF P:67 SP:FE
F9C3  90 1C     BCC $F9E1                       A:00 X:55 Y:DF P:67 SP:FC
F9C5  D0 1A     BNE $F9E1                       A:00 X:55 Y:DF P:67 SP:FC
F9C7  30 18     BMI $F9E1                       A:00 X:55 Y:DF P:67 SP:FC
F9C9  50 16     BVC $F9E1                       A:00 X:55 Y:DF P:67 SP:FC
F9CB  C9 00     CMP #$00                        A:00 X:55 Y:DF P:67 SP:FC
F9CD  D0 12     BNE $F9E1                       A:00 X:55 Y:DF P:67 SP:FC
F9CF  B8        CLV                             A:00 X:55 Y:DF P:67 SP:FC
F9D0  A9 55     LDA #$55                        A:00 X:55 Y:DF P:27 SP:FC
F9D2  38        SEC                             A:55 X:55 Y:DF P:25 SP:FC
F9D3  60        RTS                             A:55 X:55 Y:DF P:25 SP:FC
D832  C8        INY                             A:55 X:55 Y:DF P:25 SP:FE
D833  8D 78 06  STA $0678 = 00                  A:55 X:55 Y:E0 P:A5 SP:FE
D836  0E 78 06  ASL $0678 = 55                  A:55 X:55 Y:E0 P:A5 SP:FE
D839  AD 78 06  LDA $0678 = AA                  A:55 X:55 Y:E0 P:A4 SP:FE
D83C  20 D4 F9  JSR $F9D4 = B0                  A:AA X:55 Y:E0 P:A4 SP:FE
F9D4  B0 0B     BCS $F9E1                       A:AA X:55 Y:E0 P:A4 SP:FC
F9D6  F0 09     BEQ $F9E1                       A:AA X:55 Y:E0 P:A4 SP:FC
F9D8  10 07     BPL $F9E1                       A:AA X:55 Y:E0 P:A4 SP:FC
F9DA  70 05     BVS $F9E1                       A:AA X:55 Y:E0 P:A4 SP:FC
F9DC  C9 AA     CMP #$AA                        A:AA X:55 Y:E0 P:A4 SP:FC
F9DE  D0 01     BNE $F9E1                       A:AA X:55 Y:E0 P:27 SP:FC
F9E0  60        RTS                             A:AA X:55 Y:E0 P:27 SP:FC
D83F  C8        INY                             A:AA X:55 Y:E0 P:27 SP:FE
D840  20 E4 F9  JSR $F9E4 = 24                  A:AA X:55 Y:E1 P:A5 SP:FE
F9E4  24 01     BIT $01 = FF                    A:AA X:55 Y:E1 P:A5 SP:FC
F9E6  38        SEC                             A:AA X:55 Y:E1 P:E5 SP:FC
F9E7  A9 01     LDA #$01                        A:AA X:55 Y:E1 P:E5 SP:FC
F9E9  60        RTS                             A:01 X:55 Y:E1 P:65 SP:FC
D843  8D 78 06  STA $0678 = AA                  A:01 X:55 Y:E1 P:65 SP:FE
D846  6E 78 06  ROR $0678 = 01                  A:01 X:55 Y:E1 P:65 SP:FE
D849  AD 78 06  LDA $0678 = 80                  A:01 X:55 Y:E1 P:E5 SP:FE
D84C  20 EA F9  JSR $F9EA = 90                  A:80 X:55 Y:E1 P:E5 SP:FE
F9EA  90 1C     BCC $FA08                       A:80 X:55 Y:E1 P:E5 SP:FC
F9EC  F0 1A     BEQ $FA08                       A:80 X:55 Y:E1 P:E5 SP:FC
F9EE  10 18     BPL $FA08                       A:80 X:55 Y:E1 P:E5 SP:FC
F9F0  50 16     BVC $FA08                       A:80 X:55 Y:E1 P:E5 SP:FC
F9F2  C9 80     CMP #$80                        A:80 X:55 Y:E1 P:E5 SP:FC
F9F4  D0 12     BNE $FA08                       A:80 X:55 Y:E1 P:67 SP:FC
F9F6  B8        CLV                             A:80 X:55 Y:E1 P:67 SP:FC
F9F7  18        CEC                             A:80 X:55 Y:E1 P:27 SP:FC
F9F8  A9 55     LDA #$55                        A:80 X:55 Y:E1 P:26 SP:FC
F9FA  60        RTS                             A:55 X:55 Y:E1 P:24 SP:FC
D84F  C8        INY                             A:55 X:55 Y:E1 P:24 SP:FE
D850  8D 78 06  STA $0678 = 80                  A:55 X:55 Y:E2 P:A4 SP:FE
D853  6E 78 06  ROR $0678 = 55                  A:55 X:55 Y:E2 P:A4 SP:FE
D856  AD 78 06  LDA $0678 = 2A                  A:55 X:55 Y:E2 P:25 SP:FE
D859  20 FB F9  JSR $F9FB = 90                  A:2A X:55 Y:E2 P:25 SP:FE
F9FB  90 0B     BCC $FA08                       A:2A X:55 Y:E2 P:25 SP:FC
F9FD  F0 09     BEQ $FA08                       A:2A X:55 Y:E2 P:25 SP:FC
F9FF  30 07     BMI $FA08                       A:2A X:55 Y:E2 P:25 SP:FC
FA01  70 05     BVS $FA08                       A:2A X:55 Y:E2 P:25 SP:FC
FA03  C9 2A     CMP #$2A                        A:2A X:55 Y:E2 P:25 SP:FC
FA05  D0 01     BNE $FA08                       A:2A X:55 Y:E2 P:27 SP:FC
FA07  60        RTS                             A:2A X:55 Y:E2 P:27 SP:FC
D85C  C8        INY                             A:2A X:55 Y:E2 P:27 SP:FE
D85D  20 0A FA  JSR $FA0A = 24                  A:2A X:55 Y:E3 P:A5 SP:FE
FA0A  24 01     BIT $01 = FF                    A:2A X:55 Y:E3 P:A5 SP:FC
FA0C  38        SEC                             A:2A X:55 Y:E3 P:E5 SP:FC
FA0D  A9 80     LDA #$80                        A:2A X:55 Y:E3 P:E5 SP:FC
FA0F  60        RTS                             A:80 X:55 Y:E3 P:E5 SP:FC
D860  8D 78 06  STA $0678 = 2A                  A:80 X:55 Y:E3 P:E5 SP:FE
D863  2E 78 06  ROL $0678 = 80                  A:80 X:55 Y:E3 P:E5 SP:FE
D866  AD 78 06  LDA $0678 = 01                  A:80 X:55 Y:E3 P:65 SP:FE
D869  20 10 FA  JSR $FA10 = 90                  A:01 X:55 Y:E3 P:65 SP:FE
FA10  90 1C     BCC $FA2E                       A:01 X:55 Y:E3 P:65 SP:FC
FA12  F0 1A     BEQ $FA2E                       A:01 X:55 Y:E3 P:65 SP:FC
FA14  30 18     BMI $FA2E                       A:01 X:55 Y:E3 P:65 SP:FC
FA16  50 16     BVC $FA2E                       A:01 X:55 Y:E3 P:65 SP:FC
FA18  C9 01     CMP #$01                        A:01 X:55 Y:E3 P:65 SP:FC
FA1A  D0 12     BNE $FA2E                       A:01 X:55 Y:E3 P:67 SP:FC
FA1C  B8        CLV                             A:01 X:55 Y:E3 P:67 SP:FC
FA1D  18        CEC                             A:01 X:55 Y:E3 P:27 SP:FC
FA1E  A9 55     LDA #$55                        A:01 X:55 Y:E3 P:26 SP:FC
FA20  60        RTS                             A:55 X:55 Y:E3 P:24 SP:FC
D86C  C8        INY                             A:55 X:55 Y:E3 P:24 SP:FE
D86D  8D 78 06  STA $0678 = 01                  A:55 X:55 Y:E4 P:A4 SP:FE
D870  2E 78 06  ROL $0678 = 55                  A:55 X:55 Y:E4 P:A4 SP:FE
D873  AD 78 06  LDA $0678 = AA                  A:55 X:55 Y:E4 P:A4 SP:FE
D876  20 21 FA  JSR $FA21 = B0                  A:AA X:55 Y:E4 P:A4 SP:FE
FA21  B0 0B     BCS $FA2E                       A:AA X:55 Y:E4 P:A4 SP:FC
FA23  F0 09     BEQ $FA2E                       A:AA X:55 Y:E4 P:A4 SP:FC
FA25  10 07     BPL $FA2E                       A:AA X:55 Y:E4 P:A4 SP:FC
FA27  70 05     BVS $FA2E                       A:AA X:55 Y:E4 P:A4 SP:FC
FA29  C9 AA     CMP #$AA                        A:AA X:55 Y:E4 P:A4 SP:FC
FA2B  D0 01     BNE $FA2E                       A:AA X:55 Y:E4 P:27 SP:FC
FA2D  60        RTS                             A:AA X:55 Y:E4 P:27 SP:FC
D879  A9 FF     LDA #$FF                        A:AA X:55 Y:E4 P:27 SP:FE
D87B  8D 78 06  STA $0678 = AA                  A:FF X:55 Y:E4 P:A5 SP:FE
D87E  85 01     STA $01 = FF                    A:FF X:55 Y:E4 P:A5 SP:FE
D880  24 01     BIT $01 = FF                    A:FF X:55 Y:E4 P:A5 SP:FE
D882  38        SEC                             A:FF X:55 Y:E4 P:E5 SP:FE
D883  EE 78 06  INC $0678 = FF                  A:FF X:55 Y:E4 P:E5 SP:FE
D886  D0 0D     BNE $D895                       A:FF X:55 Y:E4 P:E5 SP:FE
D895  A9 E5     LDA #$E5                        A:FF X:55 Y:E4 P:E5 SP:FE
D897  85 00     STA $00 = AF                    A:E5 X:55 Y:E4 P:E5 SP:FE
D899  A9 7F     LDA #$7F                        A:E5 X:55 Y:E4 P:E5 SP:FE
D89B  8D 78 06  STA $0678 = 00                  A:7F X:55 Y:E4 P:65 SP:FE
D89E  B8        CLV                             A:7F X:55 Y:E4 P:65 SP:FE
D89F  18        CEC                             A:7F X:55 Y:E4 P:25 SP:FE
D8A0  EE 78 06  INC $0678 = 7F                  A:7F X:55 Y:E4 P:24 SP:FE
D8A3  F0 0D     BEQ $D8B2                       A:7F X:55 Y:E4 P:24 SP:FE
D8A5  10 0B     BPL $D8B2                       A:7F X:55 Y:E4 P:24 SP:FE
D8B2  A9 E6     LDA #$E6                        A:7F X:55 Y:E4 P:24 SP:FE
D8B4  85 00     STA $00 = E5                    A:E6 X:55 Y:E4 P:A4 SP:FE
D8B6  A9 00     LDA #$00                        A:E6 X:55 Y:E4 P:A4 SP:FE
D8B8  8D 78 06  STA $0678 = 80                  A:00 X:55 Y:E4 P:26 SP:FE
D8BB  24 01     BIT $01 = FF                    A:00 X:55 Y:E4 P:26 SP:FE
D8BD  38        SEC                             A:00 X:55 Y:E4 P:E6 SP:FE
D8BE  CE 78 06  DEC $0678 = 00                  A:00 X:55 Y:E4 P:E7 SP:FE
D8C1  F0 0D     BEQ $D8D0                       A:00 X:55 Y:E4 P:67 SP:FE
D8D0  A9 E7     LDA #$E7                        A:00 X:55 Y:E4 P:67 SP:FE
D8D2  85 00     STA $00 = E6                    A:E7 X:55 Y:E4 P:E5 SP:FE
D8D4  A9 80     LDA #$80                        A:E7 X:55 Y:E4 P:E5 SP:FE
D8D6  8D 78 06  STA $0678 = FF                  A:80 X:55 Y:E4 P:E5 SP:FE
D8D9  B8        CLV                             A:80 X:55 Y:E4 P:E5 SP:FE
D8DA  18        CEC                             A:80 X:55 Y:E4 P:A5 SP:FE
D8DB  CE 78 06  DEC $0678 = 80                  A:80 X:55 Y:E4 P:A4 SP:FE
D8DE  F0 0D     BEQ $D8ED                       A:80 X:55 Y:E4 P:A4 SP:FE
D8E0  30 0B     BMI $D8ED                       A:80 X:55 Y:E4 P:A4 SP:FE
D8ED  A9 E8     LDA #$E8                        A:80 X:55 Y:E4 P:A4 SP:FE
D8EF  85 00     STA $00 = E7                    A:E8 X:55 Y:E4 P:A4 SP:FE
D8F1  A9 01     LDA #$01                        A:E8 X:55 Y:E4 P:A4 SP:FE
D8F3  8D 78 06  STA $0678 = 7F                  A:01 X:55 Y:E4 P:24 SP:FE
D8F6  CE 78 06  DEC $0678 = 01                  A:01 X:55 Y:E4 P:24 SP:FE
D8F9  F0 04     BEQ $D8FF                       A:01 X:55 Y:E4 P:24 SP:FE
D8FB  A9 E9     LDA #$E9                        A:01 X:55 Y:E4 P:24 SP:FE
D8FD  85 00     STA $00 = E8                    A:E9 X:55 Y:E4 P:A4 SP:FE
D8FF  60        RTS                             A:E9 X:55 Y:E4 P:A4 SP:FE
C618  20 00 D9  JSR $D900 = A9                  A:E9 X:55 Y:E4 P:A4 SP:00
D900  A9 A3     LDA #$A3                        A:E9 X:55 Y:E4 P:A4 SP:FE
D902  85 33     STA $33 = 00                    A:A3 X:55 Y:E4 P:A4 SP:FE
D904  A9 89     LDA #$89                        A:A3 X:55 Y:E4 P:A4 SP:FE
D906  8D 00 03  STA $0300 = 70                  A:89 X:55 Y:E4 P:A4 SP:FE
D909  A9 12     LDA #$12                        A:89 X:55 Y:E4 P:A4 SP:FE
D90B  8D 45 02  STA $0245 = 00                  A:12 X:55 Y:E4 P:24 SP:FE
D90E  A9 FF     LDA #$FF                        A:12 X:55 Y:E4 P:24 SP:FE
D910  85 01     STA $01 = FF                    A:FF X:55 Y:E4 P:A4 SP:FE
D912  A2 65     LDX #$65                        A:FF X:55 Y:E4 P:A4 SP:FE
D914  A9 00     LDA #$00                        A:FF X:65 Y:E4 P:24 SP:FE
D916  85 89     STA $89 = 00                    A:00 X:65 Y:E4 P:26 SP:FE
D918  A9 03     LDA #$03                        A:00 X:65 Y:E4 P:26 SP:FE
D91A  85 8A     STA $8A = 00                    A:03 X:65 Y:E4 P:24 SP:FE
D91C  A0 00     LDY #$00                        A:03 X:65 Y:E4 P:24 SP:FE
D91E  38        SEC                             A:03 X:65 Y:00 P:26 SP:FE
D91F  A9 00     LDA #$00                        A:03 X:65 Y:00 P:27 SP:FE
D921  B8        CLV                             A:00 X:65 Y:00 P:27 SP:FE
D922  B1 89     LDA ($89),Y = 0300 @ 0300 = 89  A:00 X:65 Y:00 P:27 SP:FE
D924  F0 0C     BEQ $D932                       A:89 X:65 Y:00 P:A5 SP:FE
D926  90 0A     BCC $D932                       A:89 X:65 Y:00 P:A5 SP:FE
D928  70 08     BVS $D932                       A:89 X:65 Y:00 P:A5 SP:FE
D92A  C9 89     CMP #$89                        A:89 X:65 Y:00 P:A5 SP:FE
D92C  D0 04     BNE $D932                       A:89 X:65 Y:00 P:27 SP:FE
D92E  E0 65     CPX #$65                        A:89 X:65 Y:00 P:27 SP:FE
D930  F0 04     BEQ $D936                       A:89 X:65 Y:00 P:27 SP:FE
D936  A9 FF     LDA #$FF                        A:89 X:65 Y:00 P:27 SP:FE
D938  85 97     STA $97 = 00                    A:FF X:65 Y:00 P:A5 SP:FE
D93A  85 98     STA $98 = 00                    A:FF X:65 Y:00 P:A5 SP:FE
D93C  24 98     BIT $98 = FF                    A:FF X:65 Y:00 P:A5 SP:FE
D93E  A0 34     LDY #$34                        A:FF X:65 Y:00 P:E5 SP:FE
D940  B1 97     LDA ($97),Y = FFFF @ 0033 = A3  A:FF X:65 Y:34 P:65 SP:FE
D942  C9 A3     CMP #$A3                        A:A3 X:65 Y:34 P:E5 SP:FE
D944  D0 02     BNE $D948                       A:A3 X:65 Y:34 P:67 SP:FE
D946  B0 04     BCS $D94C                       A:A3 X:65 Y:34 P:67 SP:FE
D94C  A5 00     LDA $00 = E9                    A:A3 X:65 Y:34 P:67 SP:FE
D94E  48        PHA                             A:E9 X:65 Y:34 P:E5 SP:FE
D94F  A9 46     LDA #$46                        A:E9 X:65 Y:34 P:E5 SP:FD
D951  85 FF     STA $FF = 00                    A:46 X:65 Y:34 P:65 SP:FD
D953  A9 01     LDA #$01                        A:46 X:65 Y:34 P:65 SP:FD
D955  85 00     STA $00 = E9                    A:01 X:65 Y:34 P:65 SP:FD
D957  A0 FF     LDY #$FF                        A:01 X:65 Y:34 P:65 SP:FD
D959  B1 FF     LDA ($FF),Y = 0146 @ 0245 = 12  A:01 X:65 Y:FF P:E5 SP:FD
D95B  C9 12     CMP #$12                        A:12 X:65 Y:FF P:65 SP:FD
D95D  F0 04     BEQ $D963                       A:12 X:65 Y:FF P:67 SP:FD
D963  68        PLA                             A:12 X:65 Y:FF P:67 SP:FD
D964  85 00     STA $00 = 01                    A:E9 X:65 Y:FF P:E5 SP:FE
D966  A2 ED     LDX #$ED                        A:E9 X:65 Y:FF P:E5 SP:FE
D968  A9 00     LDA #$00                        A:E9 X:ED Y:FF P:E5 SP:FE
D96A  85 33     STA $33 = A3                    A:00 X:ED Y:FF P:67 SP:FE
D96C  A9 04     LDA #$04                        A:00 X:ED Y:FF P:67 SP:FE
D96E  85 34     STA $34 = 00                    A:04 X:ED Y:FF P:65 SP:FE
D970  A0 00     LDY #$00                        A:04 X:ED Y:FF P:65 SP:FE
D972  18        CEC                             A:04 X:ED Y:00 P:67 SP:FE
D973  A9 FF     LDA #$FF                        A:04 X:ED Y:00 P:66 SP:FE
D975  85 01     STA $01 = FF                    A:FF X:ED Y:00 P:E4 SP:FE
D977  24 01     BIT $01 = FF                    A:FF X:ED Y:00 P:E4 SP:FE
D979  A9 AA     LDA #$AA                        A:FF X:ED Y:00 P:E4 SP:FE
D97B  8D 00 04  STA $0400 = AD                  A:AA X:ED Y:00 P:E4 SP:FE
D97E  A9 55     LDA #$55                        A:AA X:ED Y:00 P:E4 SP:FE
D980  11 33     ORA ($33),Y = 0400 @ 0400 = AA  A:55 X:ED Y:00 P:64 SP:FE
D982  B0 08     BCS $D98C                       A:FF X:ED Y:00 P:E4 SP:FE
D984  10 06     BPL $D98C                       A:FF X:ED Y:00 P:E4 SP:FE
D986  C9 FF     CMP #$FF                        A:FF X:ED Y:00 P:E4 SP:FE
D988  D0 02     BNE $D98C                       A:FF X:ED Y:00 P:67 SP:FE
D98A  70 02     BVS $D98E                       A:FF X:ED Y:00 P:67 SP:FE
D98E  E8        INX                             A:FF X:ED Y:00 P:67 SP:FE
D98F  38        SEC                             A:FF X:EE Y:00 P:E5 SP:FE
D990  B8        CLV                             A:FF X:EE Y:00 P:E5 SP:FE
D991  A9 00     LDA #$00                        A:FF X:EE Y:00 P:A5 SP:FE
D993  11 33     ORA ($33),Y = 0400 @ 0400 = AA  A:00 X:EE Y:00 P:27 SP:FE
D995  F0 06     BEQ $D99D                       A:AA X:EE Y:00 P:A5 SP:FE
D997  70 04     BVS $D99D                       A:AA X:EE Y:00 P:A5 SP:FE
D999  90 02     BCC $D99D                       A:AA X:EE Y:00 P:A5 SP:FE
D99B  30 02     BMI $D99F                       A:AA X:EE Y:00 P:A5 SP:FE
D99F  E8        INX                             A:AA X:EE Y:00 P:A5 SP:FE
D9A0  18        CEC                             A:AA X:EF Y:00 P:A5 SP:FE
D9A1  24 01     BIT $01 = FF                    A:AA X:EF Y:00 P:A4 SP:FE
D9A3  A9 55     LDA #$55                        A:AA X:EF Y:00 P:E4 SP:FE
D9A5  31 33     AND ($33),Y = 0400 @ 0400 = AA  A:55 X:EF Y:00 P:64 SP:FE
D9A7  D0 06     BNE $D9AF                       A:00 X:EF Y:00 P:66 SP:FE
D9A9  50 04     BVC $D9AF                       A:00 X:EF Y:00 P:66 SP:FE
D9AB  B0 02     BCS $D9AF                       A:00 X:EF Y:00 P:66 SP:FE
D9AD  10 02     BPL $D9B1                       A:00 X:EF Y:00 P:66 SP:FE
D9B1  E8        INX                             A:00 X:EF Y:00 P:66 SP:FE
D9B2  38        SEC                             A:00 X:F0 Y:00 P:E4 SP:FE
D9B3  B8        CLV                             A:00 X:F0 Y:00 P:E5 SP:FE
D9B4  A9 EF     LDA #$EF                        A:00 X:F0 Y:00 P:A5 SP:FE
D9B6  8D 00 04  STA $0400 = AA                  A:EF X:F0 Y:00 P:A5 SP:FE
D9B9  A9 F8     LDA #$F8                        A:EF X:F0 Y:00 P:A5 SP:FE
D9BB  31 33     AND ($33),Y = 0400 @ 0400 = EF  A:F8 X:F0 Y:00 P:A5 SP:FE
D9BD  90 08     BCC $D9C7                       A:E8 X:F0 Y:00 P:A5 SP:FE
D9BF  10 06     BPL $D9C7                       A:E8 X:F0 Y:00 P:A5 SP:FE
D9C1  C9 E8     CMP #$E8                        A:E8 X:F0 Y:00 P:A5 SP:FE
D9C3  D0 02     BNE $D9C7                       A:E8 X:F0 Y:00 P:27 SP:FE
D9C5  50 02     BVC $D9C9                       A:E8 X:F0 Y:00 P:27 SP:FE
D9C9  E8        INX                             A:E8 X:F0 Y:00 P:27 SP:FE
D9CA  18        CEC                             A:E8 X:F1 Y:00 P:A5 SP:FE
D9CB  24 01     BIT $01 = FF                    A:E8 X:F1 Y:00 P:A4 SP:FE
D9CD  A9 AA     LDA #$AA                        A:E8 X:F1 Y:00 P:E4 SP:FE
D9CF  8D 00 04  STA $0400 = EF                  A:AA X:F1 Y:00 P:E4 SP:FE
D9D2  A9 5F     LDA #$5F                        A:AA X:F1 Y:00 P:E4 SP:FE
D9D4  51 33     EOR ($33),Y = 0400 @ 0400 = AA  A:5F X:F1 Y:00 P:64 SP:FE
D9D6  B0 08     BCS $D9E0                       A:F5 X:F1 Y:00 P:E4 SP:FE
D9D8  10 06     BPL $D9E0                       A:F5 X:F1 Y:00 P:E4 SP:FE
D9DA  C9 F5     CMP #$F5                        A:F5 X:F1 Y:00 P:E4 SP:FE
D9DC  D0 02     BNE $D9E0                       A:F5 X:F1 Y:00 P:67 SP:FE
D9DE  70 02     BVS $D9E2                       A:F5 X:F1 Y:00 P:67 SP:FE
D9E2  E8        INX                             A:F5 X:F1 Y:00 P:67 SP:FE
D9E3  38        SEC                             A:F5 X:F2 Y:00 P:E5 SP:FE
D9E4  B8        CLV                             A:F5 X:F2 Y:00 P:E5 SP:FE
D9E5  A9 70     LDA #$70                        A:F5 X:F2 Y:00 P:A5 SP:FE
D9E7  8D 00 04  STA $0400 = AA                  A:70 X:F2 Y:00 P:25 SP:FE
D9EA  51 33     EOR ($33),Y = 0400 @ 0400 = 70  A:70 X:F2 Y:00 P:25 SP:FE
D9EC  D0 06     BNE $D9F4                       A:00 X:F2 Y:00 P:27 SP:FE
D9EE  70 04     BVS $D9F4                       A:00 X:F2 Y:00 P:27 SP:FE
D9F0  90 02     BCC $D9F4                       A:00 X:F2 Y:00 P:27 SP:FE
D9F2  10 02     BPL $D9F6                       A:00 X:F2 Y:00 P:27 SP:FE
D9F6  E8        INX                             A:00 X:F2 Y:00 P:27 SP:FE
D9F7  18        CEC                             A:00 X:F3 Y:00 P:A5 SP:FE
D9F8  24 01     BIT $01 = FF                    A:00 X:F3 Y:00 P:A4 SP:FE
D9FA  A9 69     LDA #$69                        A:00 X:F3 Y:00 P:E6 SP:FE
D9FC  8D 00 04  STA $0400 = 70                  A:69 X:F3 Y:00 P:64 SP:FE
D9FF  A9 00     LDA #$00                        A:69 X:F3 Y:00 P:64 SP:FE
DA01  71 33     ADC ($33),Y = 0400 @ 0400 = 69  A:00 X:F3 Y:00 P:66 SP:FE
DA03  30 08     BMI $DA0D                       A:69 X:F3 Y:00 P:24 SP:FE
DA05  B0 06     BCS $DA0D                       A:69 X:F3 Y:00 P:24 SP:FE
DA07  C9 69     CMP #$69                        A:69 X:F3 Y:00 P:24 SP:FE
DA09  D0 02     BNE $DA0D                       A:69 X:F3 Y:00 P:27 SP:FE
DA0B  50 02     BVC $DA0F                       A:69 X:F3 Y:00 P:27 SP:FE
DA0F  E8        INX                             A:69 X:F3 Y:00 P:27 SP:FE
DA10  38        SEC                             A:69 X:F4 Y:00 P:A5 SP:FE
DA11  24 01     BIT $01 = FF                    A:69 X:F4 Y:00 P:A5 SP:FE
DA13  A9 00     LDA #$00                        A:69 X:F4 Y:00 P:E5 SP:FE
DA15  71 33     ADC ($33),Y = 0400 @ 0400 = 69  A:00 X:F4 Y:00 P:67 SP:FE
DA17  30 08     BMI $DA21                       A:6A X:F4 Y:00 P:24 SP:FE
DA19  B0 06     BCS $DA21                       A:6A X:F4 Y:00 P:24 SP:FE
DA1B  C9 6A     CMP #$6A                        A:6A X:F4 Y:00 P:24 SP:FE
DA1D  D0 02     BNE $DA21                       A:6A X:F4 Y:00 P:27 SP:FE
DA1F  50 02     BVC $DA23                       A:6A X:F4 Y:00 P:27 SP:FE
DA23  E8        INX                             A:6A X:F4 Y:00 P:27 SP:FE
DA24  38        SEC                             A:6A X:F5 Y:00 P:A5 SP:FE
DA25  B8        CLV                             A:6A X:F5 Y:00 P:A5 SP:FE
DA26  A9 7F     LDA #$7F                        A:6A X:F5 Y:00 P:A5 SP:FE
DA28  8D 00 04  STA $0400 = 69                  A:7F X:F5 Y:00 P:25 SP:FE
DA2B  71 33     ADC ($33),Y = 0400 @ 0400 = 7F  A:7F X:F5 Y:00 P:25 SP:FE
DA2D  10 08     BPL $DA37                       A:FF X:F5 Y:00 P:E4 SP:FE
DA2F  B0 06     BCS $DA37                       A:FF X:F5 Y:00 P:E4 SP:FE
DA31  C9 FF     CMP #$FF                        A:FF X:F5 Y:00 P:E4 SP:FE
DA33  D0 02     BNE $DA37                       A:FF X:F5 Y:00 P:67 SP:FE
DA35  70 02     BVS $DA39                       A:FF X:F5 Y:00 P:67 SP:FE
DA39  E8        INX                             A:FF X:F5 Y:00 P:67 SP:FE
DA3A  18        CEC                             A:FF X:F6 Y:00 P:E5 SP:FE
DA3B  24 01     BIT $01 = FF                    A:FF X:F6 Y:00 P:E4 SP:FE
DA3D  A9 80     LDA #$80                        A:FF X:F6 Y:00 P:E4 SP:FE
DA3F  8D 00 04  STA $0400 = 7F                  A:80 X:F6 Y:00 P:E4 SP:FE
DA42  A9 7F     LDA #$7F                        A:80 X:F6 Y:00 P:E4 SP:FE
DA44  71 33     ADC ($33),Y = 0400 @ 0400 = 80  A:7F X:F6 Y:00 P:64 SP:FE
DA46  10 08     BPL $DA50                       A:FF X:F6 Y:00 P:A4 SP:FE
DA48  B0 06     BCS $DA50                       A:FF X:F6 Y:00 P:A4 SP:FE
DA4A  C9 FF     CMP #$FF                        A:FF X:F6 Y:00 P:A4 SP:FE
DA4C  D0 02     BNE $DA50                       A:FF X:F6 Y:00 P:27 SP:FE
DA4E  50 02     BVC $DA52                       A:FF X:F6 Y:00 P:27 SP:FE
DA52  E8        INX                             A:FF X:F6 Y:00 P:27 SP:FE
DA53  38        SEC                             A:FF X:F7 Y:00 P:A5 SP:FE
DA54  B8        CLV                             A:FF X:F7 Y:00 P:A5 SP:FE
DA55  A9 80     LDA #$80                        A:FF X:F7 Y:00 P:A5 SP:FE
DA57  8D 00 04  STA $0400 = 80                  A:80 X:F7 Y:00 P:A5 SP:FE
DA5A  A9 7F     LDA #$7F                        A:80 X:F7 Y:00 P:A5 SP:FE
DA5C  71 33     ADC ($33),Y = 0400 @ 0400 = 80  A:7F X:F7 Y:00 P:25 SP:FE
DA5E  D0 06     BNE $DA66                       A:00 X:F7 Y:00 P:27 SP:FE
DA60  30 04     BMI $DA66                       A:00 X:F7 Y:00 P:27 SP:FE
DA62  70 02     BVS $DA66                       A:00 X:F7 Y:00 P:27 SP:FE
DA64  B0 02     BCS $DA68                       A:00 X:F7 Y:00 P:27 SP:FE
DA68  E8        INX                             A:00 X:F7 Y:00 P:27 SP:FE
DA69  24 01     BIT $01 = FF                    A:00 X:F8 Y:00 P:A5 SP:FE
DA6B  A9 40     LDA #$40                        A:00 X:F8 Y:00 P:E7 SP:FE
DA6D  8D 00 04  STA $0400 = 80                  A:40 X:F8 Y:00 P:65 SP:FE
DA70  D1 33     CMP ($33),Y = 0400 @ 0400 = 40  A:40 X:F8 Y:00 P:65 SP:FE
DA72  30 06     BMI $DA7A                       A:40 X:F8 Y:00 P:67 SP:FE
DA74  90 04     BCC $DA7A                       A:40 X:F8 Y:00 P:67 SP:FE
DA76  D0 02     BNE $DA7A                       A:40 X:F8 Y:00 P:67 SP:FE
DA78  70 02     BVS $DA7C                       A:40 X:F8 Y:00 P:67 SP:FE
DA7C  E8        INX                             A:40 X:F8 Y:00 P:67 SP:FE
DA7D  B8        CLV                             A:40 X:F9 Y:00 P:E5 SP:FE
DA7E  CE 00 04  DEC $0400 = 40                  A:40 X:F9 Y:00 P:A5 SP:FE
DA81  D1 33     CMP ($33),Y = 0400 @ 0400 = 3F  A:40 X:F9 Y:00 P:25 SP:FE
DA83  F0 06     BEQ $DA8B                       A:40 X:F9 Y:00 P:25 SP:FE
DA85  30 04     BMI $DA8B                       A:40 X:F9 Y:00 P:25 SP:FE
DA87  90 02     BCC $DA8B                       A:40 X:F9 Y:00 P:25 SP:FE
DA89  50 02     BVC $DA8D                       A:40 X:F9 Y:00 P:25 SP:FE
DA8D  E8        INX                             A:40 X:F9 Y:00 P:25 SP:FE
DA8E  EE 00 04  INC $0400 = 3F                  A:40 X:FA Y:00 P:A5 SP:FE
DA91  EE 00 04  INC $0400 = 40                  A:40 X:FA Y:00 P:25 SP:FE
DA94  D1 33     CMP ($33),Y = 0400 @ 0400 = 41  A:40 X:FA Y:00 P:25 SP:FE
DA96  F0 02     BEQ $DA9A                       A:40 X:FA Y:00 P:A4 SP:FE
DA98  30 02     BMI $DA9C                       A:40 X:FA Y:00 P:A4 SP:FE
DA9C  E8        INX                             A:40 X:FA Y:00 P:A4 SP:FE
DA9D  A9 00     LDA #$00                        A:40 X:FB Y:00 P:A4 SP:FE
DA9F  8D 00 04  STA $0400 = 41                  A:00 X:FB Y:00 P:26 SP:FE
DAA2  A9 80     LDA #$80                        A:00 X:FB Y:00 P:26 SP:FE
DAA4  D1 33     CMP ($33),Y = 0400 @ 0400 = 00  A:80 X:FB Y:00 P:A4 SP:FE
DAA6  F0 04     BEQ $DAAC                       A:80 X:FB Y:00 P:A5 SP:FE
DAA8  10 02     BPL $DAAC                       A:80 X:FB Y:00 P:A5 SP:FE
DAAA  B0 02     BCS $DAAE                       A:80 X:FB Y:00 P:A5 SP:FE
DAAE  E8        INX                             A:80 X:FB Y:00 P:A5 SP:FE
DAAF  A0 80     LDY #$80                        A:80 X:FC Y:00 P:A5 SP:FE
DAB1  8C 00 04  STY $0400 = 00                  A:80 X:FC Y:80 P:A5 SP:FE
DAB4  A0 00     LDY #$00                        A:80 X:FC Y:80 P:A5 SP:FE
DAB6  D1 33     CMP ($33),Y = 0400 @ 0400 = 80  A:80 X:FC Y:00 P:27 SP:FE
DAB8  D0 04     BNE $DABE                       A:80 X:FC Y:00 P:27 SP:FE
DABA  30 02     BMI $DABE                       A:80 X:FC Y:00 P:27 SP:FE
DABC  B0 02     BCS $DAC0                       A:80 X:FC Y:00 P:27 SP:FE
DAC0  E8        INX                             A:80 X:FC Y:00 P:27 SP:FE
DAC1  EE 00 04  INC $0400 = 80                  A:80 X:FD Y:00 P:A5 SP:FE
DAC4  D1 33     CMP ($33),Y = 0400 @ 0400 = 81  A:80 X:FD Y:00 P:A5 SP:FE
DAC6  B0 04     BCS $DACC                       A:80 X:FD Y:00 P:A4 SP:FE
DAC8  F0 02     BEQ $DACC                       A:80 X:FD Y:00 P:A4 SP:FE
DACA  30 02     BMI $DACE                       A:80 X:FD Y:00 P:A4 SP:FE
DACE  E8        INX                             A:80 X:FD Y:00 P:A4 SP:FE
DACF  CE 00 04  DEC $0400 = 81                  A:80 X:FE Y:00 P:A4 SP:FE
DAD2  CE 00 04  DEC $0400 = 80                  A:80 X:FE Y:00 P:A4 SP:FE
DAD5  D1 33     CMP ($33),Y = 0400 @ 0400 = 7F  A:80 X:FE Y:00 P:A4 SP:FE
DAD7  90 04     BCC $DADD                       A:80 X:FE Y:00 P:25 SP:FE
DAD9  F0 02     BEQ $DADD                       A:80 X:FE Y:00 P:25 SP:FE
DADB  10 02     BPL $DADF                       A:80 X:FE Y:00 P:25 SP:FE
DADF  60        RTS                             A:80 X:FE Y:00 P:25 SP:FE
C61B  A5 00     LDA $00 = E9                    A:80 X:FE Y:00 P:25 SP:00
C61D  85 10     STA $10 = 00                    A:E9 X:FE Y:00 P:A5 SP:00
C61F  A9 00     LDA #$00                        A:E9 X:FE Y:00 P:A5 SP:00
C621  85 00     STA $00 = E9                    A:00 X:FE Y:00 P:27 SP:00
C623  20 E0 DA  JSR $DAE0 = A9                  A:00 X:FE Y:00 P:27 SP:00
DAE0  A9 00     LDA #$00                        A:00 X:FE Y:00 P:27 SP:FE
DAE2  85 33     STA $33 = 00                    A:00 X:FE Y:00 P:27 SP:FE
DAE4  A9 04     LDA #$04                        A:00 X:FE Y:00 P:27 SP:FE
DAE6  85 34     STA $34 = 04                    A:04 X:FE Y:00 P:25 SP:FE
DAE8  A0 00     LDY #$00                        A:04 X:FE Y:00 P:25 SP:FE
DAEA  A2 01     LDX #$01                        A:04 X:FE Y:00 P:27 SP:FE
DAEC  24 01     BIT $01 = FF                    A:04 X:01 Y:00 P:25 SP:FE
DAEE  A9 40     LDA #$40                        A:04 X:01 Y:00 P:E5 SP:FE
DAF0  8D 00 04  STA $0400 = 7F                  A:40 X:01 Y:00 P:65 SP:FE
DAF3  38        SEC                             A:40 X:01 Y:00 P:65 SP:FE
DAF4  F1 33     SBC ($33),Y = 0400 @ 0400 = 40  A:40 X:01 Y:00 P:65 SP:FE
DAF6  30 0A     BMI $DB02                       A:00 X:01 Y:00 P:27 SP:FE
DAF8  90 08     BCC $DB02                       A:00 X:01 Y:00 P:27 SP:FE
DAFA  D0 06     BNE $DB02                       A:00 X:01 Y:00 P:27 SP:FE
DAFC  70 04     BVS $DB02                       A:00 X:01 Y:00 P:27 SP:FE
DAFE  C9 00     CMP #$00                        A:00 X:01 Y:00 P:27 SP:FE
DB00  F0 02     BEQ $DB04                       A:00 X:01 Y:00 P:27 SP:FE
DB04  E8        INX                             A:00 X:01 Y:00 P:27 SP:FE
DB05  B8        CLV                             A:00 X:02 Y:00 P:25 SP:FE
DB06  38        SEC                             A:00 X:02 Y:00 P:25 SP:FE
DB07  A9 40     LDA #$40                        A:00 X:02 Y:00 P:25 SP:FE
DB09  CE 00 04  DEC $0400 = 40                  A:40 X:02 Y:00 P:25 SP:FE
DB0C  F1 33     SBC ($33),Y = 0400 @ 0400 = 3F  A:40 X:02 Y:00 P:25 SP:FE
DB0E  F0 0A     BEQ $DB1A                       A:01 X:02 Y:00 P:25 SP:FE
DB10  30 08     BMI $DB1A                       A:01 X:02 Y:00 P:25 SP:FE
DB12  90 06     BCC $DB1A                       A:01 X:02 Y:00 P:25 SP:FE
DB14  70 04     BVS $DB1A                       A:01 X:02 Y:00 P:25 SP:FE
DB16  C9 01     CMP #$01                        A:01 X:02 Y:00 P:25 SP:FE
DB18  F0 02     BEQ $DB1C                       A:01 X:02 Y:00 P:27 SP:FE
DB1C  E8        INX                             A:01 X:02 Y:00 P:27 SP:FE
DB1D  A9 40     LDA #$40                        A:01 X:03 Y:00 P:25 SP:FE
DB1F  38        SEC                             A:40 X:03 Y:00 P:25 SP:FE
DB20  24 01     BIT $01 = FF                    A:40 X:03 Y:00 P:25 SP:FE
DB22  EE 00 04  INC $0400 = 3F                  A:40 X:03 Y:00 P:E5 SP:FE
DB25  EE 00 04  INC $0400 = 40                  A:40 X:03 Y:00 P:65 SP:FE
DB28  F1 33     SBC ($33),Y = 0400 @ 0400 = 41  A:40 X:03 Y:00 P:65 SP:FE
DB2A  B0 0A     BCS $DB36                       A:FF X:03 Y:00 P:A4 SP:FE
DB2C  F0 08     BEQ $DB36                       A:FF X:03 Y:00 P:A4 SP:FE
DB2E  10 06     BPL $DB36                       A:FF X:03 Y:00 P:A4 SP:FE
DB30  70 04     BVS $DB36                       A:FF X:03 Y:00 P:A4 SP:FE
DB32  C9 FF     CMP #$FF                        A:FF X:03 Y:00 P:A4 SP:FE
DB34  F0 02     BEQ $DB38                       A:FF X:03 Y:00 P:27 SP:FE
DB38  E8        INX                             A:FF X:03 Y:00 P:27 SP:FE
DB39  18        CEC                             A:FF X:04 Y:00 P:25 SP:FE
DB3A  A9 00     LDA #$00                        A:FF X:04 Y:00 P:24 SP:FE
DB3C  8D 00 04  STA $0400 = 41                  A:00 X:04 Y:00 P:26 SP:FE
DB3F  A9 80     LDA #$80                        A:00 X:04 Y:00 P:26 SP:FE
DB41  F1 33     SBC ($33),Y = 0400 @ 0400 = 00  A:80 X:04 Y:00 P:A4 SP:FE
DB43  90 04     BCC $DB49                       A:7F X:04 Y:00 P:65 SP:FE
DB45  C9 7F     CMP #$7F                        A:7F X:04 Y:00 P:65 SP:FE
DB47  F0 02     BEQ $DB4B                       A:7F X:04 Y:00 P:67 SP:FE
DB4B  E8        INX                             A:7F X:04 Y:00 P:67 SP:FE
DB4C  38        SEC                             A:7F X:05 Y:00 P:65 SP:FE
DB4D  A9 7F     LDA #$7F                        A:7F X:05 Y:00 P:65 SP:FE
DB4F  8D 00 04  STA $0400 = 00                  A:7F X:05 Y:00 P:65 SP:FE
DB52  A9 81     LDA #$81                        A:7F X:05 Y:00 P:65 SP:FE
DB54  F1 33     SBC ($33),Y = 0400 @ 0400 = 7F  A:81 X:05 Y:00 P:E5 SP:FE
DB56  50 06     BVC $DB5E                       A:02 X:05 Y:00 P:65 SP:FE
DB58  90 04     BCC $DB5E                       A:02 X:05 Y:00 P:65 SP:FE
DB5A  C9 02     CMP #$02                        A:02 X:05 Y:00 P:65 SP:FE
DB5C  F0 02     BEQ $DB60                       A:02 X:05 Y:00 P:67 SP:FE
DB60  E8        INX                             A:02 X:05 Y:00 P:67 SP:FE
DB61  A9 00     LDA #$00                        A:02 X:06 Y:00 P:65 SP:FE
DB63  A9 87     LDA #$87                        A:00 X:06 Y:00 P:67 SP:FE
DB65  91 33     STA ($33),Y = 0400 @ 0400 = 7F  A:87 X:06 Y:00 P:E5 SP:FE
DB67  AD 00 04  LDA $0400 = 87                  A:87 X:06 Y:00 P:E5 SP:FE
DB6A  C9 87     CMP #$87                        A:87 X:06 Y:00 P:E5 SP:FE
DB6C  F0 02     BEQ $DB70                       A:87 X:06 Y:00 P:67 SP:FE
DB70  E8        INX                             A:87 X:06 Y:00 P:67 SP:FE
DB71  A9 7E     LDA #$7E                        A:87 X:07 Y:00 P:65 SP:FE
DB73  8D 00 02  STA $0200 = 7F                  A:7E X:07 Y:00 P:65 SP:FE
DB76  A9 DB     LDA #$DB                        A:7E X:07 Y:00 P:65 SP:FE
DB78  8D 01 02  STA $0201 = 00                  A:DB X:07 Y:00 P:E5 SP:FE
DB7B  6C 00 02  JMP ($0200) = DB7E              A:DB X:07 Y:00 P:E5 SP:FE
DB7E  A9 00     LDA #$00                        A:DB X:07 Y:00 P:E5 SP:FE
DB80  8D FF 02  STA $02FF = 00                  A:00 X:07 Y:00 P:67 SP:FE
DB83  A9 01     LDA #$01                        A:00 X:07 Y:00 P:67 SP:FE
DB85  8D 00 03  STA $0300 = 89                  A:01 X:07 Y:00 P:65 SP:FE
DB88  A9 03     LDA #$03                        A:01 X:07 Y:00 P:65 SP:FE
DB8A  8D 00 02  STA $0200 = 7E                  A:03 X:07 Y:00 P:65 SP:FE
DB8D  A9 A9     LDA #$A9                        A:03 X:07 Y:00 P:65 SP:FE
DB8F  8D 00 01  STA $0100 = C6                  A:A9 X:07 Y:00 P:E5 SP:FE
DB92  A9 55     LDA #$55                        A:A9 X:07 Y:00 P:E5 SP:FE
DB94  8D 01 01  STA $0101 = 00                  A:55 X:07 Y:00 P:65 SP:FE
DB97  A9 60     LDA #$60                        A:55 X:07 Y:00 P:65 SP:FE
DB99  8D 02 01  STA $0102 = 00                  A:60 X:07 Y:00 P:65 SP:FE
DB9C  A9 A9     LDA #$A9                        A:60 X:07 Y:00 P:65 SP:FE
DB9E  8D 00 03  STA $0300 = 01                  A:A9 X:07 Y:00 P:E5 SP:FE
DBA1  A9 AA     LDA #$AA                        A:A9 X:07 Y:00 P:E5 SP:FE
DBA3  8D 01 03  STA $0301 = 00                  A:AA X:07 Y:00 P:E5 SP:FE
DBA6  A9 60     LDA #$60                        A:AA X:07 Y:00 P:E5 SP:FE
DBA8  8D 02 03  STA $0302 = 00                  A:60 X:07 Y:00 P:65 SP:FE
DBAB  20 B5 DB  JSR $DBB5 = 6C                  A:60 X:07 Y:00 P:65 SP:FE
DBB5  6C FF 02  JMP ($02FF) = 0300              A:60 X:07 Y:00 P:65 SP:FC
0300  A9 AA     LDA #$AA                        A:60 X:07 Y:00 P:65 SP:FC
0302  60        RTS                             A:AA X:07 Y:00 P:E5 SP:FC
DBAE  C9 AA     CMP #$AA                        A:AA X:07 Y:00 P:E5 SP:FE
DBB0  F0 02     BEQ $DBB4                       A:AA X:07 Y:00 P:67 SP:FE
DBB4  60        RTS                             A:AA X:07 Y:00 P:67 SP:FE
A926  A9 EB     LDA #$EB                        A:AA X:07 Y:00 P:67 SP:00
A928  8D 47 06  STA $0647 = 00                  A:EB X:07 Y:00 P:E5 SP:00
A92B  20 31 FA  JSR $FA31 = 24                  A:EB X:07 Y:00 P:E5 SP:00
FA31  24 01     BIT $01 = FF                    A:EB X:07 Y:00 P:E5 SP:FE
FA33  18        CEC                             A:EB X:07 Y:00 P:E5 SP:FE
FA34  A9 40     LDA #$40                        A:EB X:07 Y:00 P:E4 SP:FE
FA36  60        RTS                             A:40 X:07 Y:00 P:64 SP:FE
